文件：3key.c       编译器版本 HGASM 0202 页次1


   1  0000              ; Generated by holtek-gcc v3.17, Tue Aug 22 13:44:16 2017
   2  0000              ; 
   3  0000              ; Configuration:
   4  0000              ;       without long instruction
   5  0000              ;       Single ROM, Multi-RAM
   6  0000              ;       bits_per_rom_unit:16
   7  0000              ;       with mp1
   8  0000              ;       with tbhp, address(0x9)
   9  0000              ;          Use tabrd-const
  10  0000              ;       
  11  0000              ;       
  12  0000              ;       
  13  0000              ; use 'tabrdc' instead of 'tabrd'
  14  0000              ;       
  15  0000              
  16  0000              #pragma translator "holtek-gcc 4.6.4" "3.17" "build 20130711"
  17  0000              ; Rebuild 307
  18  0000              
  19  0000              ir equ [2]
  20  0000              mp equ [3]
  21  0000              sbp equ [1]
  22  0000              acc equ [5]
  23  0000              bp equ [4]
  24  0000              tblp equ [7]
  25  0000              tbhp equ [9]
  26  0000              status equ [10]
  27  0000              c equ [10].0
  28  0000              ac equ [10].1
  29  0000              z equ [10].2
  30  0000              ov equ [10].3
  31  0000              intc equ [11]
  32  0000              
  33  0000              extern ra:byte
  34  0000              extern rb:byte
  35  0000              extern rc:byte
  36  0000              extern rd:byte
  37  0000              extern re:byte
  38  0000              extern rf:byte
  39  0000              extern rg:byte
  40  0000              extern rh:byte
  41  0000              extern _Crom2Prom:near
  42  0000              extern _Crom2PromNext:near
  43  0000              
  44  0000              RAMBANK 0 @HCCINIT, @HCCINIT0
  45  0000              
  46  0000              RAMBANK 0 @BITDATASEC, @BITDATASEC1
  47  0000              @HCCINIT	.section 'data'
  48  0000              @HCCINIT0	.section 'data'
  49  0000              @BITDATASEC	 .section 'data'
  50  0000              @BITDATASEC1	 .section 'data'
  51  0000              
  52  0000              #pragma debug scope 1 1
  53  0000              	extern __DELAY3:near
  54  0000              	extern __DELAYX3:near
  55  0000              	extern __DELAYX6:near
  56  0000              	extern __DELAYY5:near
  57  0000              	extern __DELAYY3:near
  58  0000              	extern _builtin_holtek_delay_2:byte
  59  0000              ___pac equ [21]
文件：3key.ASM     编译器版本 HGASM 0202 页次2

  60  0000              ___papu equ [22]
  61  0000              ___pa equ [20]
  62  0000              public _GPIOA_INIT
  63  0000              #pragma debug scope 2 1

   7  0000              #line 7 "F:\HTMCU\MB-T006-HT66F0185\[TEST06] AD\3key.c"
   7  0000              _GPIOA_INIT .section 'code'
   7  0000              _GPIOA_INIT proc
   7  0000              public _GPIOA_INIT_2
   7  0000  0004[           local _GPIOA_INIT_2 db 4 dup(?)	; 3,1
            00
            ]
   7  0000  0080     R  	mov _GPIOA_INIT_2[3],a
   7  0001              #pragma debug variable 8 2 _GPIOA_INIT_2+3 "GPIO_Pin"
   7  0001              #pragma debug variable 8 2 _GPIOA_INIT_2+0 "GPIO_Mode"
   7  0001              #pragma debug variable 8 2 _GPIOA_INIT_2+1 "wakeup"
   7  0001              #pragma debug variable 8 2 _GPIOA_INIT_2+2 "GPIO_BitVal"
   8  0001              #line 8 "F:\HTMCU\MB-T006-HT66F0185\[TEST06] AD\3key.c"
   8  0001  1700     R  	sdza _GPIOA_INIT_2[0]
   8  0002  2800     R  	jmp _L2
  10  0003              #line 10 "F:\HTMCU\MB-T006-HT66F0185\[TEST06] AD\3key.c"
  10  0003  0700     R  	mov a,_GPIOA_INIT_2[3]
  10  0004  0595        	orm a,[21]
  11  0005              #line 11 "F:\HTMCU\MB-T006-HT66F0185\[TEST06] AD\3key.c"
  11  0005  0700     R  	mov a,_GPIOA_INIT_2[3]
  11  0006  0596        	orm a,[22]
  11  0007  2800     R  	jmp _L3
  11  0008              _L2:
  15  0008              #line 15 "F:\HTMCU\MB-T006-HT66F0185\[TEST06] AD\3key.c"
  15  0008  0100     R  	cpla _GPIOA_INIT_2[3]
  15  0009  0080     E  	mov ra,a
  15  000A  0700     E  	mov a,ra
  15  000B  0695        	andm a,[21]
  16  000C              #line 16 "F:\HTMCU\MB-T006-HT66F0185\[TEST06] AD\3key.c"
  16  000C  0700     E  	mov a,ra
  16  000D  0696        	andm a,[22]
  16  000E              _L3:
  19  000E              #line 19 "F:\HTMCU\MB-T006-HT66F0185\[TEST06] AD\3key.c"
  19  000E  1080     R  	sz _GPIOA_INIT_2[2]
  19  000F  2800     R  	jmp _LI1
  19  0010  2800     R  	jmp _L4
  19  0011              _LI1:
  21  0011              #line 21 "F:\HTMCU\MB-T006-HT66F0185\[TEST06] AD\3key.c"
  21  0011  0700     R  	mov a,_GPIOA_INIT_2[3]
  21  0012  0594        	orm a,[20]
  21  0013  2800     R  	jmp _L1
  21  0014              _L4:
  25  0014              #line 25 "F:\HTMCU\MB-T006-HT66F0185\[TEST06] AD\3key.c"
  25  0014  0100     R  	cpla _GPIOA_INIT_2[3]
  25  0015  0080     E  	mov ra,a
  25  0016  0700     E  	mov a,ra
  25  0017  0694        	andm a,[20]
  25  0018              _L1:
  25  0018  0003        	ret
  25  0019              _GPIOA_INIT endp
  25  0019              #line 25 "F:\HTMCU\MB-T006-HT66F0185\[TEST06] AD\3key.c"
  25  0019              #pragma debug scope 1 1
  25  0019              ___pbc equ [38]
  25  0019              ___pbpu equ [39]
  25  0019              ___pb equ [37]
文件：3key.c       编译器版本 HGASM 0202 页次3

  25  0019              public _GPIOB_INIT
  25  0019              #pragma debug scope 3 1
  31  0019              #line 31 "F:\HTMCU\MB-T006-HT66F0185\[TEST06] AD\3key.c"
  31  0000              _GPIOB_INIT .section 'code'
  31  0000              _GPIOB_INIT proc
  31  0000              public _GPIOB_INIT_2
  31  0000  0003[           local _GPIOB_INIT_2 db 3 dup(?)	; 2,1
            00
            ]
  31  0000  0080     R  	mov _GPIOB_INIT_2[2],a
  31  0001              #pragma debug variable 8 3 _GPIOB_INIT_2+2 "GPIO_Pin"
  31  0001              #pragma debug variable 8 3 _GPIOB_INIT_2+0 "GPIO_Mode"
  31  0001              #pragma debug variable 8 3 _GPIOB_INIT_2+1 "GPIO_BitVal"
  33  0001              #line 33 "F:\HTMCU\MB-T006-HT66F0185\[TEST06] AD\3key.c"
  33  0001  1700     R  	sdza _GPIOB_INIT_2[0]
  33  0002  2800     R  	jmp _L8
  35  0003              #line 35 "F:\HTMCU\MB-T006-HT66F0185\[TEST06] AD\3key.c"
  35  0003  0700     R  	mov a,_GPIOB_INIT_2[2]
  35  0004  05A6        	orm a,[38]
  36  0005              #line 36 "F:\HTMCU\MB-T006-HT66F0185\[TEST06] AD\3key.c"
  36  0005  0700     R  	mov a,_GPIOB_INIT_2[2]
  36  0006  05A7        	orm a,[39]
  36  0007  2800     R  	jmp _L9
  36  0008              _L8:
  40  0008              #line 40 "F:\HTMCU\MB-T006-HT66F0185\[TEST06] AD\3key.c"
  40  0008  0100     R  	cpla _GPIOB_INIT_2[2]
  40  0009  0080     E  	mov ra,a
  40  000A  0700     E  	mov a,ra
  40  000B  06A6        	andm a,[38]
  41  000C              #line 41 "F:\HTMCU\MB-T006-HT66F0185\[TEST06] AD\3key.c"
  41  000C  0700     E  	mov a,ra
  41  000D  06A7        	andm a,[39]
  41  000E              _L9:
  44  000E              #line 44 "F:\HTMCU\MB-T006-HT66F0185\[TEST06] AD\3key.c"
  44  000E  1080     R  	sz _GPIOB_INIT_2[1]
  44  000F  2800     R  	jmp _LI2
  44  0010  2800     R  	jmp _L10
  44  0011              _LI2:
  46  0011              #line 46 "F:\HTMCU\MB-T006-HT66F0185\[TEST06] AD\3key.c"
  46  0011  0700     R  	mov a,_GPIOB_INIT_2[2]
  46  0012  05A5        	orm a,[37]
  46  0013  2800     R  	jmp _L7
  46  0014              _L10:
  50  0014              #line 50 "F:\HTMCU\MB-T006-HT66F0185\[TEST06] AD\3key.c"
  50  0014  0100     R  	cpla _GPIOB_INIT_2[2]
  50  0015  0080     E  	mov ra,a
  50  0016  0700     E  	mov a,ra
  50  0017  06A5        	andm a,[37]
  50  0018              _L7:
  50  0018  0003        	ret
  50  0019              _GPIOB_INIT endp
  50  0019              #line 50 "F:\HTMCU\MB-T006-HT66F0185\[TEST06] AD\3key.c"
  50  0019              #pragma debug scope 1 1
  50  0019              ___pcc equ [66]
  50  0019              ___pcpu equ [67]
  50  0019              ___pc equ [65]
  50  0019              public _GPIOC_INIT
  50  0019              #pragma debug scope 4 1
  55  0019              #line 55 "F:\HTMCU\MB-T006-HT66F0185\[TEST06] AD\3key.c"
  55  0000              _GPIOC_INIT .section 'code'
文件：3key.c       编译器版本 HGASM 0202 页次4

  55  0000              _GPIOC_INIT proc
  55  0000              public _GPIOC_INIT_2
  55  0000  0003[           local _GPIOC_INIT_2 db 3 dup(?)	; 2,1
            00
            ]
  55  0000  0080     R  	mov _GPIOC_INIT_2[2],a
  55  0001              #pragma debug variable 8 4 _GPIOC_INIT_2+2 "GPIO_Pin"
  55  0001              #pragma debug variable 8 4 _GPIOC_INIT_2+0 "GPIO_Mode"
  55  0001              #pragma debug variable 8 4 _GPIOC_INIT_2+1 "GPIO_BitVal"
  57  0001              #line 57 "F:\HTMCU\MB-T006-HT66F0185\[TEST06] AD\3key.c"
  57  0001  1700     R  	sdza _GPIOC_INIT_2[0]
  57  0002  2800     R  	jmp _L13
  59  0003              #line 59 "F:\HTMCU\MB-T006-HT66F0185\[TEST06] AD\3key.c"
  59  0003  0700     R  	mov a,_GPIOC_INIT_2[2]
  59  0004  05C2        	orm a,[66]
  60  0005              #line 60 "F:\HTMCU\MB-T006-HT66F0185\[TEST06] AD\3key.c"
  60  0005  0700     R  	mov a,_GPIOC_INIT_2[2]
  60  0006  05C3        	orm a,[67]
  60  0007  2800     R  	jmp _L14
  60  0008              _L13:
  64  0008              #line 64 "F:\HTMCU\MB-T006-HT66F0185\[TEST06] AD\3key.c"
  64  0008  0100     R  	cpla _GPIOC_INIT_2[2]
  64  0009  0080     E  	mov ra,a
  64  000A  0700     E  	mov a,ra
  64  000B  06C2        	andm a,[66]
  65  000C              #line 65 "F:\HTMCU\MB-T006-HT66F0185\[TEST06] AD\3key.c"
  65  000C  0700     E  	mov a,ra
  65  000D  06C3        	andm a,[67]
  65  000E              _L14:
  68  000E              #line 68 "F:\HTMCU\MB-T006-HT66F0185\[TEST06] AD\3key.c"
  68  000E  1080     R  	sz _GPIOC_INIT_2[1]
  68  000F  2800     R  	jmp _LI3
  68  0010  2800     R  	jmp _L15
  68  0011              _LI3:
  70  0011              #line 70 "F:\HTMCU\MB-T006-HT66F0185\[TEST06] AD\3key.c"
  70  0011  0700     R  	mov a,_GPIOC_INIT_2[2]
  70  0012  05C1        	orm a,[65]
  70  0013  2800     R  	jmp _L12
  70  0014              _L15:
  74  0014              #line 74 "F:\HTMCU\MB-T006-HT66F0185\[TEST06] AD\3key.c"
  74  0014  0100     R  	cpla _GPIOC_INIT_2[2]
  74  0015  0080     E  	mov ra,a
  74  0016  0700     E  	mov a,ra
  74  0017  06C1        	andm a,[65]
  74  0018              _L12:
  74  0018  0003        	ret
  74  0019              _GPIOC_INIT endp
  74  0019              #line 74 "F:\HTMCU\MB-T006-HT66F0185\[TEST06] AD\3key.c"
  74  0019              #pragma debug scope 1 1
  74  0019              ___pdc equ [83]
  74  0019              ___pdpu equ [84]
  74  0019              ___pd equ [82]
  74  0019              public _GPIOD_INIT
  74  0019              #pragma debug scope 5 1
  80  0019              #line 80 "F:\HTMCU\MB-T006-HT66F0185\[TEST06] AD\3key.c"
  80  0000              _GPIOD_INIT .section 'code'
  80  0000              _GPIOD_INIT proc
  80  0000              public _GPIOD_INIT_2
  80  0000  0003[           local _GPIOD_INIT_2 db 3 dup(?)	; 2,1
            00
文件：3key.c       编译器版本 HGASM 0202 页次5

            ]
  80  0000  0080     R  	mov _GPIOD_INIT_2[2],a
  80  0001              #pragma debug variable 8 5 _GPIOD_INIT_2+2 "GPIO_Pin"
  80  0001              #pragma debug variable 8 5 _GPIOD_INIT_2+0 "GPIO_Mode"
  80  0001              #pragma debug variable 8 5 _GPIOD_INIT_2+1 "GPIO_BitVal"
  82  0001              #line 82 "F:\HTMCU\MB-T006-HT66F0185\[TEST06] AD\3key.c"
  82  0001  1700     R  	sdza _GPIOD_INIT_2[0]
  82  0002  2800     R  	jmp _L18
  84  0003              #line 84 "F:\HTMCU\MB-T006-HT66F0185\[TEST06] AD\3key.c"
  84  0003  0700     R  	mov a,_GPIOD_INIT_2[2]
  84  0004  05D3        	orm a,[83]
  85  0005              #line 85 "F:\HTMCU\MB-T006-HT66F0185\[TEST06] AD\3key.c"
  85  0005  0700     R  	mov a,_GPIOD_INIT_2[2]
  85  0006  05D4        	orm a,[84]
  85  0007  2800     R  	jmp _L19
  85  0008              _L18:
  89  0008              #line 89 "F:\HTMCU\MB-T006-HT66F0185\[TEST06] AD\3key.c"
  89  0008  0100     R  	cpla _GPIOD_INIT_2[2]
  89  0009  0080     E  	mov ra,a
  89  000A  0700     E  	mov a,ra
  89  000B  06D3        	andm a,[83]
  90  000C              #line 90 "F:\HTMCU\MB-T006-HT66F0185\[TEST06] AD\3key.c"
  90  000C  0700     E  	mov a,ra
  90  000D  06D4        	andm a,[84]
  90  000E              _L19:
  93  000E              #line 93 "F:\HTMCU\MB-T006-HT66F0185\[TEST06] AD\3key.c"
  93  000E  1080     R  	sz _GPIOD_INIT_2[1]
  93  000F  2800     R  	jmp _LI4
  93  0010  2800     R  	jmp _L20
  93  0011              _LI4:
  95  0011              #line 95 "F:\HTMCU\MB-T006-HT66F0185\[TEST06] AD\3key.c"
  95  0011  0700     R  	mov a,_GPIOD_INIT_2[2]
  95  0012  05D2        	orm a,[82]
  95  0013  2800     R  	jmp _L17
  95  0014              _L20:
  99  0014              #line 99 "F:\HTMCU\MB-T006-HT66F0185\[TEST06] AD\3key.c"
  99  0014  0100     R  	cpla _GPIOD_INIT_2[2]
  99  0015  0080     E  	mov ra,a
  99  0016  0700     E  	mov a,ra
  99  0017  06D2        	andm a,[82]
  99  0018              _L17:
  99  0018  0003        	ret
  99  0019              _GPIOD_INIT endp
  99  0019              #line 99 "F:\HTMCU\MB-T006-HT66F0185\[TEST06] AD\3key.c"
  99  0019              #pragma debug scope 1 1
  99  0019              ___bp equ [4]
  99  0019              ___mp1 equ [3]
  99  0019              ___iar1 equ [2]
  99  0019              public _clr_ram_en
  99  0019              #pragma debug scope 6 1
 105  0019              #line 105 "F:\HTMCU\MB-T006-HT66F0185\[TEST06] AD\3key.c"
 105  0000              _clr_ram_en .section 'code'
 105  0000              _clr_ram_en proc
 105  0000  00              local _clr_ram_en_2 db 1 dup(?)	; 0,1
 105  0000  0080     E  	mov ra,a
 105  0001  0080     R  	mov _clr_ram_en_2[0],a
 105  0002              #pragma debug variable 8 6 _clr_ram_en_2+0 "t"
 106  0002              #line 106 "F:\HTMCU\MB-T006-HT66F0185\[TEST06] AD\3key.c"
 106  0002  0F01        	mov a,1
 106  0003  0680     E  	andm a,ra
文件：3key.c       编译器版本 HGASM 0202 页次6

 106  0004  3404        	clr [4].0
 106  0005  0700     E  	mov a,ra
 106  0006  0584        	orm a,[4]
 107  0007              #line 107 "F:\HTMCU\MB-T006-HT66F0185\[TEST06] AD\3key.c"
 107  0007  0F80        	mov a,128
 107  0008  0083        	mov [3],a
 108  0009              #line 108 "F:\HTMCU\MB-T006-HT66F0185\[TEST06] AD\3key.c"
 108  0009  2800     R  	jmp _L23
 108  000A              _L24:
 110  000A              #line 110 "F:\HTMCU\MB-T006-HT66F0185\[TEST06] AD\3key.c"
 110  000A  1F02        	clr [2]
 111  000B              #line 111 "F:\HTMCU\MB-T006-HT66F0185\[TEST06] AD\3key.c"
 111  000B  1483        	inc [3]
 111  000C              _L23:
 108  000C              #line 108 "F:\HTMCU\MB-T006-HT66F0185\[TEST06] AD\3key.c"
 108  000C  1083        	sz [3]
 108  000D  2800     R  	jmp _L24
 108  000E  0003        	ret
 108  000F              _clr_ram_en endp
 108  000F              #line 108 "F:\HTMCU\MB-T006-HT66F0185\[TEST06] AD\3key.c"
 108  000F              #pragma debug scope 1 1
 108  000F              ___smod equ [11]
 108  000F              ___wdtc equ [26]
 108  000F              ___sadc0 equ [34]
 108  000F              ___sadc1 equ [35]
 108  000F              ___sadc2 equ [36]
 108  000F              ___acerl equ [68]
 108  000F              ___tmpc equ [25]
 108  000F              ___cpc equ [63]
 108  000F              ___integ equ [13]
 108  000F              ___intc0 equ [14]
 108  000F              ___slcdc0 equ [74]
 108  000F              ___slcdc1 equ [75]
 108  000F              ___slcdc2 equ [76]
 108  000F              ___slcdc3 equ [77]
 108  000F              ___slcdc4 equ [78]
 108  000F              ___tm0c0 equ [47]
 108  000F              ___tm0c1 equ [48]
 108  000F              ___tm0al equ [51]
 108  000F              ___tm0ah equ [52]
 108  000F              ___mfi0 equ [17]
 108  000F              public _Init_clock
 108  000F              #pragma debug scope 7 1
 116  000F              #line 116 "F:\HTMCU\MB-T006-HT66F0185\[TEST06] AD\3key.c"
 116  0000              _Init_clock .section 'code'
 116  0000              _Init_clock proc
 117  0000              #line 117 "F:\HTMCU\MB-T006-HT66F0185\[TEST06] AD\3key.c"
 117  0000  0F01        	mov a,1
 117  0001  008B        	mov [11],a
 117  0002              _L27:
 118  0002              #line 118 "F:\HTMCU\MB-T006-HT66F0185\[TEST06] AD\3key.c"
 118  0002  390B        	snz [11].2
 118  0003  2800     R  	jmp _L27
 119  0004              #line 119 "F:\HTMCU\MB-T006-HT66F0185\[TEST06] AD\3key.c"
 119  0004  0F57        	mov a,87
 119  0005  009A        	mov [26],a
 120  0006              #line 120 "F:\HTMCU\MB-T006-HT66F0185\[TEST06] AD\3key.c"
 120  0006  0F23        	mov a,35
 120  0007  00A2        	mov [34],a
 121  0008              #line 121 "F:\HTMCU\MB-T006-HT66F0185\[TEST06] AD\3key.c"
文件：3key.c       编译器版本 HGASM 0202 页次7

 121  0008  0F03        	mov a,3
 121  0009  00A3        	mov [35],a
 122  000A              #line 122 "F:\HTMCU\MB-T006-HT66F0185\[TEST06] AD\3key.c"
 122  000A  1F24        	clr [36]
 123  000B              #line 123 "F:\HTMCU\MB-T006-HT66F0185\[TEST06] AD\3key.c"
 123  000B  0F08        	mov a,8
 123  000C  00C4        	mov [68],a
 125  000D              #line 125 "F:\HTMCU\MB-T006-HT66F0185\[TEST06] AD\3key.c"
 125  000D  1F19        	clr [25]
 126  000E              #line 126 "F:\HTMCU\MB-T006-HT66F0185\[TEST06] AD\3key.c"
 126  000E  0F08        	mov a,8
 126  000F  00BF        	mov [63],a
 127  0010              #line 127 "F:\HTMCU\MB-T006-HT66F0185\[TEST06] AD\3key.c"
 127  0010  1F0D        	clr [13]
 128  0011              #line 128 "F:\HTMCU\MB-T006-HT66F0185\[TEST06] AD\3key.c"
 128  0011  348E        	clr [14].1
 129  0012              #line 129 "F:\HTMCU\MB-T006-HT66F0185\[TEST06] AD\3key.c"
 129  0012  340E        	clr [14].0
 132  0013              #line 132 "F:\HTMCU\MB-T006-HT66F0185\[TEST06] AD\3key.c"
 132  0013  1F4A        	clr [74]
 133  0014              #line 133 "F:\HTMCU\MB-T006-HT66F0185\[TEST06] AD\3key.c"
 133  0014  1F4B        	clr [75]
 134  0015              #line 134 "F:\HTMCU\MB-T006-HT66F0185\[TEST06] AD\3key.c"
 134  0015  1F4C        	clr [76]
 135  0016              #line 135 "F:\HTMCU\MB-T006-HT66F0185\[TEST06] AD\3key.c"
 135  0016  1F4D        	clr [77]
 136  0017              #line 136 "F:\HTMCU\MB-T006-HT66F0185\[TEST06] AD\3key.c"
 136  0017  1F4E        	clr [78]
 138  0018              #line 138 "F:\HTMCU\MB-T006-HT66F0185\[TEST06] AD\3key.c"
 138  0018  0F10        	mov a,16
 138  0019  00AF        	mov [47],a
 139  001A              #line 139 "F:\HTMCU\MB-T006-HT66F0185\[TEST06] AD\3key.c"
 139  001A  0FC1        	mov a,193
 139  001B  00B0        	mov [48],a
 140  001C              #line 140 "F:\HTMCU\MB-T006-HT66F0185\[TEST06] AD\3key.c"
 140  001C  0FF8        	mov a,248
 140  001D  00B3        	mov [51],a
 141  001E              #line 141 "F:\HTMCU\MB-T006-HT66F0185\[TEST06] AD\3key.c"
 141  001E  0F05        	mov a,5
 141  001F  00B4        	mov [52],a
 142  0020              #line 142 "F:\HTMCU\MB-T006-HT66F0185\[TEST06] AD\3key.c"
 142  0020  3691        	clr [17].5
 143  0021              #line 143 "F:\HTMCU\MB-T006-HT66F0185\[TEST06] AD\3key.c"
 143  0021  31AF        	set [47].3
 144  0022              #line 144 "F:\HTMCU\MB-T006-HT66F0185\[TEST06] AD\3key.c"
 144  0022  318E        	set [14].3
 145  0023              #line 145 "F:\HTMCU\MB-T006-HT66F0185\[TEST06] AD\3key.c"
 145  0023  3091        	set [17].1
 151  0024              #line 151 "F:\HTMCU\MB-T006-HT66F0185\[TEST06] AD\3key.c"
 151  0024  300E        	set [14].0
 153  0025              #line 153 "F:\HTMCU\MB-T006-HT66F0185\[TEST06] AD\3key.c"
 153  0025              ;# 153 "F:\HTMCU\MB-T006-HT66F0185\[TEST06] AD\3key.c" 1
 153  0025  0001        	clr wdt
 154  0026              #line 154 "F:\HTMCU\MB-T006-HT66F0185\[TEST06] AD\3key.c"
 154  0026  0F00        	mov a,0
 154  0027  2000     R  	call _clr_ram_en
 155  0028              #line 155 "F:\HTMCU\MB-T006-HT66F0185\[TEST06] AD\3key.c"
 155  0028  0F01        	mov a,1
 155  0029  2000     R  	call _clr_ram_en
 155  002A  0003        	ret
文件：3key.c       编译器版本 HGASM 0202 页次8

 155  002B              _Init_clock endp
 155  002B              #line 155 "F:\HTMCU\MB-T006-HT66F0185\[TEST06] AD\3key.c"
 155  002B              #pragma debug scope 1 1
 155  002B              public _isr_TM0
 155  002B              #pragma debug scope 8 1
 162  002B              #line 162 "F:\HTMCU\MB-T006-HT66F0185\[TEST06] AD\3key.c"
 162  0000              @isr_TM0_code .section at 12 'code'
 162  0000  0080     E  	mov r1,a
 162  0001  070A        	mov a,status
 162  0002  0080     E  	mov r2,a
 162  0003  2800     R  	jmp _isr_TM0
 162  0004              #pragma debug scope 1 1
 162  0004              @dummy12 endp
 162  0004              #pragma debug scope 9 1
 162  0000              _isr_TM0 .section 'code'
 162  0000              _isr_TM0 proc
 162  0000  00          local _isr_TM0_2 db 1 dup(?)
 163  0001              #line 163 "F:\HTMCU\MB-T006-HT66F0185\[TEST06] AD\3key.c"
 163  0000  3691        	clr [17].5
 164  0001              #line 164 "F:\HTMCU\MB-T006-HT66F0185\[TEST06] AD\3key.c"
 164  0001  300E        	set [14].0
 165  0002              #line 165 "F:\HTMCU\MB-T006-HT66F0185\[TEST06] AD\3key.c"
 165  0002  1480     R  	inc _step3[0]
 166  0003              #line 166 "F:\HTMCU\MB-T006-HT66F0185\[TEST06] AD\3key.c"
 166  0003  1480     R  	inc _tms[0]
 166  0004  3D0A        	sz z
 166  0005  1480     R  	inc _tms[1]
 167  0006              #line 167 "F:\HTMCU\MB-T006-HT66F0185\[TEST06] AD\3key.c"
 167  0006  0F05        	mov a,5
 167  0007  0200     R  	sub a,_step3[0]
 167  0008  3C0A        	sz c
 167  0009  2800     R  	jmp _L29
 169  000A              #line 169 "F:\HTMCU\MB-T006-HT66F0185\[TEST06] AD\3key.c"
 169  000A  1F00     R  	clr _step3[0]
 170  000B              #line 170 "F:\HTMCU\MB-T006-HT66F0185\[TEST06] AD\3key.c"
 170  000B  3052        	set [82].0
 171  000C              #line 171 "F:\HTMCU\MB-T006-HT66F0185\[TEST06] AD\3key.c"
 171  000C  30D2        	set [82].1
 172  000D              #line 172 "F:\HTMCU\MB-T006-HT66F0185\[TEST06] AD\3key.c"
 172  000D  3152        	set [82].2
 173  000E              #line 173 "F:\HTMCU\MB-T006-HT66F0185\[TEST06] AD\3key.c"
 173  000E  31D2        	set [82].3
 175  000F              #line 175 "F:\HTMCU\MB-T006-HT66F0185\[TEST06] AD\3key.c"
 175  000F  3041        	set [65].0
 176  0010              #line 176 "F:\HTMCU\MB-T006-HT66F0185\[TEST06] AD\3key.c"
 176  0010  30C1        	set [65].1
 177  0011              #line 177 "F:\HTMCU\MB-T006-HT66F0185\[TEST06] AD\3key.c"
 177  0011  3141        	set [65].2
 178  0012              #line 178 "F:\HTMCU\MB-T006-HT66F0185\[TEST06] AD\3key.c"
 178  0012  31C1        	set [65].3
 179  0013              #line 179 "F:\HTMCU\MB-T006-HT66F0185\[TEST06] AD\3key.c"
 179  0013  3241        	set [65].4
 180  0014              #line 180 "F:\HTMCU\MB-T006-HT66F0185\[TEST06] AD\3key.c"
 180  0014  32C1        	set [65].5
 181  0015              #line 181 "F:\HTMCU\MB-T006-HT66F0185\[TEST06] AD\3key.c"
 181  0015  3341        	set [65].6
 182  0016              #line 182 "F:\HTMCU\MB-T006-HT66F0185\[TEST06] AD\3key.c"
 182  0016  3094        	set [20].1
 183  0017              #line 183 "F:\HTMCU\MB-T006-HT66F0185\[TEST06] AD\3key.c"
 183  0017  1480     R  	inc _wei[0]
文件：3key.c       编译器版本 HGASM 0202 页次9

 184  0018              #line 184 "F:\HTMCU\MB-T006-HT66F0185\[TEST06] AD\3key.c"
 184  0018  0700     R  	mov a,_wei[0]
 184  0019  0080     R  	mov _isr_TM0_2[0],a
 184  001A  0700     R  	mov a,_isr_TM0_2[0]
 184  001B  0A01        	sub a,1
 184  001C  3D0A        	sz z
 184  001D  2800     R  	jmp _L30
 184  001E  0A01        	sub a,(2)-(1)
 184  001F  3D0A        	sz z
 184  0020  2800     R  	jmp _L31
 184  0021  0700     R  	mov a,_isr_TM0_2[0]
 184  0022  0A03        	sub a,3
 184  0023  3D0A        	sz z
 184  0024  2800     R  	jmp _L32
 184  0025  0A01        	sub a,(4)-(3)
 184  0026  3D0A        	sz z
 184  0027  2800     R  	jmp _L33
 184  0028  0700     R  	mov a,_isr_TM0_2[0]
 184  0029  0A05        	sub a,5
 184  002A  3D0A        	sz z
 184  002B  2800     R  	jmp _L34
 184  002C  0A01        	sub a,(6)-(5)
 184  002D  3D0A        	sz z
 184  002E  2800     R  	jmp _L35
 184  002F  0700     R  	mov a,_isr_TM0_2[0]
 184  0030  0A07        	sub a,7
 184  0031  3D0A        	sz z
 184  0032  2800     R  	jmp _L36
 184  0033  0700     R  	mov a,_isr_TM0_2[0]
 184  0034  0A08        	sub a,8
 184  0035  390A        	snz z
 184  0036  2800     R  	jmp _L29
 245  0037              #line 245 "F:\HTMCU\MB-T006-HT66F0185\[TEST06] AD\3key.c"
 245  0037  1F00     R  	clr _wei[0]
 246  0038              #line 246 "F:\HTMCU\MB-T006-HT66F0185\[TEST06] AD\3key.c"
 246  0038  3452        	clr [82].0
 247  0039              #line 247 "F:\HTMCU\MB-T006-HT66F0185\[TEST06] AD\3key.c"
 247  0039  3494        	clr [20].1
 247  003A  2800     R  	jmp _L29
 247  003B              _L30:
 188  003B              #line 188 "F:\HTMCU\MB-T006-HT66F0185\[TEST06] AD\3key.c"
 188  003B  3800     R  	snz _uF4[0].0
 188  003C  2800     R  	jmp _L38
 188  003D  3452        	clr [82].0
 188  003E              _L38:
 189  003E              #line 189 "F:\HTMCU\MB-T006-HT66F0185\[TEST06] AD\3key.c"
 189  003E  3800     R  	snz _uF5[0].0
 189  003F  2800     R  	jmp _L39
 189  0040  34D2        	clr [82].1
 189  0041              _L39:
 190  0041              #line 190 "F:\HTMCU\MB-T006-HT66F0185\[TEST06] AD\3key.c"
 190  0041  3800     R  	snz _uF6[0].0
 190  0042  2800     R  	jmp _L40
 190  0043  3552        	clr [82].2
 190  0044              _L40:
 191  0044              #line 191 "F:\HTMCU\MB-T006-HT66F0185\[TEST06] AD\3key.c"
 191  0044  3800     R  	snz _uF7[0].0
 191  0045  2800     R  	jmp _L41
 191  0046  35D2        	clr [82].3
 191  0047              _L41:
文件：3key.c       编译器版本 HGASM 0202 页次10

 192  0047              #line 192 "F:\HTMCU\MB-T006-HT66F0185\[TEST06] AD\3key.c"
 192  0047  3441        	clr [65].0
 193  0048              #line 193 "F:\HTMCU\MB-T006-HT66F0185\[TEST06] AD\3key.c"
 193  0048  2800     R  	jmp _L29
 193  0049              _L31:
 196  0049              #line 196 "F:\HTMCU\MB-T006-HT66F0185\[TEST06] AD\3key.c"
 196  0049  3800     R  	snz _uF4[0].1
 196  004A  2800     R  	jmp _L42
 196  004B  3452        	clr [82].0
 196  004C              _L42:
 197  004C              #line 197 "F:\HTMCU\MB-T006-HT66F0185\[TEST06] AD\3key.c"
 197  004C  3800     R  	snz _uF5[0].1
 197  004D  2800     R  	jmp _L43
 197  004E  34D2        	clr [82].1
 197  004F              _L43:
 198  004F              #line 198 "F:\HTMCU\MB-T006-HT66F0185\[TEST06] AD\3key.c"
 198  004F  3800     R  	snz _uF6[0].1
 198  0050  2800     R  	jmp _L44
 198  0051  3552        	clr [82].2
 198  0052              _L44:
 199  0052              #line 199 "F:\HTMCU\MB-T006-HT66F0185\[TEST06] AD\3key.c"
 199  0052  3800     R  	snz _uF7[0].1
 199  0053  2800     R  	jmp _L45
 199  0054  35D2        	clr [82].3
 199  0055              _L45:
 200  0055              #line 200 "F:\HTMCU\MB-T006-HT66F0185\[TEST06] AD\3key.c"
 200  0055  34C1        	clr [65].1
 201  0056              #line 201 "F:\HTMCU\MB-T006-HT66F0185\[TEST06] AD\3key.c"
 201  0056  2800     R  	jmp _L29
 201  0057              _L32:
 204  0057              #line 204 "F:\HTMCU\MB-T006-HT66F0185\[TEST06] AD\3key.c"
 204  0057  3800     R  	snz _uF4[0].2
 204  0058  2800     R  	jmp _L46
 204  0059  3452        	clr [82].0
 204  005A              _L46:
 205  005A              #line 205 "F:\HTMCU\MB-T006-HT66F0185\[TEST06] AD\3key.c"
 205  005A  3800     R  	snz _uF5[0].2
 205  005B  2800     R  	jmp _L47
 205  005C  34D2        	clr [82].1
 205  005D              _L47:
 206  005D              #line 206 "F:\HTMCU\MB-T006-HT66F0185\[TEST06] AD\3key.c"
 206  005D  3800     R  	snz _uF6[0].2
 206  005E  2800     R  	jmp _L48
 206  005F  3552        	clr [82].2
 206  0060              _L48:
 207  0060              #line 207 "F:\HTMCU\MB-T006-HT66F0185\[TEST06] AD\3key.c"
 207  0060  3800     R  	snz _uF7[0].2
 207  0061  2800     R  	jmp _L49
 207  0062  35D2        	clr [82].3
 207  0063              _L49:
 208  0063              #line 208 "F:\HTMCU\MB-T006-HT66F0185\[TEST06] AD\3key.c"
 208  0063  3541        	clr [65].2
 209  0064              #line 209 "F:\HTMCU\MB-T006-HT66F0185\[TEST06] AD\3key.c"
 209  0064  2800     R  	jmp _L29
 209  0065              _L33:
 212  0065              #line 212 "F:\HTMCU\MB-T006-HT66F0185\[TEST06] AD\3key.c"
 212  0065  3800     R  	snz _uF4[0].3
 212  0066  2800     R  	jmp _L50
 212  0067  3452        	clr [82].0
 212  0068              _L50:
文件：3key.c       编译器版本 HGASM 0202 页次11

 213  0068              #line 213 "F:\HTMCU\MB-T006-HT66F0185\[TEST06] AD\3key.c"
 213  0068  3800     R  	snz _uF5[0].3
 213  0069  2800     R  	jmp _L51
 213  006A  34D2        	clr [82].1
 213  006B              _L51:
 214  006B              #line 214 "F:\HTMCU\MB-T006-HT66F0185\[TEST06] AD\3key.c"
 214  006B  3800     R  	snz _uF6[0].3
 214  006C  2800     R  	jmp _L52
 214  006D  3552        	clr [82].2
 214  006E              _L52:
 215  006E              #line 215 "F:\HTMCU\MB-T006-HT66F0185\[TEST06] AD\3key.c"
 215  006E  3800     R  	snz _uF7[0].3
 215  006F  2800     R  	jmp _L53
 215  0070  35D2        	clr [82].3
 215  0071              _L53:
 216  0071              #line 216 "F:\HTMCU\MB-T006-HT66F0185\[TEST06] AD\3key.c"
 216  0071  35C1        	clr [65].3
 217  0072              #line 217 "F:\HTMCU\MB-T006-HT66F0185\[TEST06] AD\3key.c"
 217  0072  2800     R  	jmp _L29
 217  0073              _L34:
 220  0073              #line 220 "F:\HTMCU\MB-T006-HT66F0185\[TEST06] AD\3key.c"
 220  0073  3800     R  	snz _uF4[0].4
 220  0074  2800     R  	jmp _L54
 220  0075  3452        	clr [82].0
 220  0076              _L54:
 221  0076              #line 221 "F:\HTMCU\MB-T006-HT66F0185\[TEST06] AD\3key.c"
 221  0076  3800     R  	snz _uF5[0].4
 221  0077  2800     R  	jmp _L55
 221  0078  34D2        	clr [82].1
 221  0079              _L55:
 222  0079              #line 222 "F:\HTMCU\MB-T006-HT66F0185\[TEST06] AD\3key.c"
 222  0079  3800     R  	snz _uF6[0].4
 222  007A  2800     R  	jmp _L56
 222  007B  3552        	clr [82].2
 222  007C              _L56:
 223  007C              #line 223 "F:\HTMCU\MB-T006-HT66F0185\[TEST06] AD\3key.c"
 223  007C  3800     R  	snz _uF7[0].4
 223  007D  2800     R  	jmp _L57
 223  007E  35D2        	clr [82].3
 223  007F              _L57:
 224  007F              #line 224 "F:\HTMCU\MB-T006-HT66F0185\[TEST06] AD\3key.c"
 224  007F  3641        	clr [65].4
 225  0080              #line 225 "F:\HTMCU\MB-T006-HT66F0185\[TEST06] AD\3key.c"
 225  0080  2800     R  	jmp _L29
 225  0081              _L35:
 228  0081              #line 228 "F:\HTMCU\MB-T006-HT66F0185\[TEST06] AD\3key.c"
 228  0081  3800     R  	snz _uF4[0].5
 228  0082  2800     R  	jmp _L58
 228  0083  3452        	clr [82].0
 228  0084              _L58:
 229  0084              #line 229 "F:\HTMCU\MB-T006-HT66F0185\[TEST06] AD\3key.c"
 229  0084  3800     R  	snz _uF5[0].5
 229  0085  2800     R  	jmp _L59
 229  0086  34D2        	clr [82].1
 229  0087              _L59:
 230  0087              #line 230 "F:\HTMCU\MB-T006-HT66F0185\[TEST06] AD\3key.c"
 230  0087  3800     R  	snz _uF6[0].5
 230  0088  2800     R  	jmp _L60
 230  0089  3552        	clr [82].2
 230  008A              _L60:
文件：3key.c       编译器版本 HGASM 0202 页次12

 231  008A              #line 231 "F:\HTMCU\MB-T006-HT66F0185\[TEST06] AD\3key.c"
 231  008A  3800     R  	snz _uF7[0].5
 231  008B  2800     R  	jmp _L61
 231  008C  35D2        	clr [82].3
 231  008D              _L61:
 232  008D              #line 232 "F:\HTMCU\MB-T006-HT66F0185\[TEST06] AD\3key.c"
 232  008D  36C1        	clr [65].5
 233  008E              #line 233 "F:\HTMCU\MB-T006-HT66F0185\[TEST06] AD\3key.c"
 233  008E  2800     R  	jmp _L29
 233  008F              _L36:
 236  008F              #line 236 "F:\HTMCU\MB-T006-HT66F0185\[TEST06] AD\3key.c"
 236  008F  3800     R  	snz _uF4[0].6
 236  0090  2800     R  	jmp _L62
 236  0091  3452        	clr [82].0
 236  0092              _L62:
 237  0092              #line 237 "F:\HTMCU\MB-T006-HT66F0185\[TEST06] AD\3key.c"
 237  0092  3800     R  	snz _uF5[0].6
 237  0093  2800     R  	jmp _L63
 237  0094  34D2        	clr [82].1
 237  0095              _L63:
 238  0095              #line 238 "F:\HTMCU\MB-T006-HT66F0185\[TEST06] AD\3key.c"
 238  0095  3800     R  	snz _uF6[0].6
 238  0096  2800     R  	jmp _L64
 238  0097  3552        	clr [82].2
 238  0098              _L64:
 239  0098              #line 239 "F:\HTMCU\MB-T006-HT66F0185\[TEST06] AD\3key.c"
 239  0098  3800     R  	snz _uF7[0].6
 239  0099  2800     R  	jmp _L65
 239  009A  35D2        	clr [82].3
 239  009B              _L65:
 240  009B              #line 240 "F:\HTMCU\MB-T006-HT66F0185\[TEST06] AD\3key.c"
 240  009B  3741        	clr [65].6
 240  009C              _L29:
 251  009C              #line 251 "F:\HTMCU\MB-T006-HT66F0185\[TEST06] AD\3key.c"
 251  009C  0FC4        	mov a,196
 251  009D  0200     R  	sub a,_tms[0]
 251  009E  0F09        	mov a,9
 251  009F  1200     R  	sbc a,_tms[1]
 251  00A0  3C0A        	sz c
 251  00A1  2800     R  	jmp _L28
 253  00A2              #line 253 "F:\HTMCU\MB-T006-HT66F0185\[TEST06] AD\3key.c"
 253  00A2  1F00     R  	clr _tms[0]
 253  00A3  1F00     R  	clr _tms[1]
 254  00A4              #line 254 "F:\HTMCU\MB-T006-HT66F0185\[TEST06] AD\3key.c"
 254  00A4  3000     R  	set _uF1[0].0
 254  00A5              _L28:
 254  00A5  0700     E  	mov a,r2
 254  00A6  008A        	mov status,a
 254  00A7  0700     E  	mov a,r1
 254  00A8  0004        	reti
 254  00A9              _isr_TM0 endp
 254  00A9              
 254  00A9              #line 254 "F:\HTMCU\MB-T006-HT66F0185\[TEST06] AD\3key.c"
 254  00A9              #pragma debug scope 1 1
 254  00A9              ___sadol equ [32]
 254  00A9              ___sadoh equ [33]
 254  00A9              public _Get_AD
 254  00A9              #pragma debug scope 10 1
 259  00A9              #line 259 "F:\HTMCU\MB-T006-HT66F0185\[TEST06] AD\3key.c"
 259  0000              _Get_AD .section 'code'
文件：3key.c       编译器版本 HGASM 0202 页次13

 259  0000              _Get_AD proc
 259  0000  0008[           local _Get_AD_2 db 8 dup(?)	; 0,8
            00
            ]
 259  0000  0F0A        	mov a,10
 259  0001  0080     E  	mov rh,a
 262  0002              #line 262 "F:\HTMCU\MB-T006-HT66F0185\[TEST06] AD\3key.c"
 262  0002  1F00     E  	clr ra
 262  0003              _L156:
 264  0003              #line 264 "F:\HTMCU\MB-T006-HT66F0185\[TEST06] AD\3key.c"
 264  0003  37A2        	clr [34].7
 265  0004              #line 265 "F:\HTMCU\MB-T006-HT66F0185\[TEST06] AD\3key.c"
 265  0004  33A2        	set [34].7
 266  0005              #line 266 "F:\HTMCU\MB-T006-HT66F0185\[TEST06] AD\3key.c"
 266  0005  37A2        	clr [34].7
 266  0006              _L153:
 267  0006              #line 267 "F:\HTMCU\MB-T006-HT66F0185\[TEST06] AD\3key.c"
 267  0006  3F22        	sz [34].6
 267  0007  2800     R  	jmp _L153
 272  0008              #line 272 "F:\HTMCU\MB-T006-HT66F0185\[TEST06] AD\3key.c"
 272  0008  0720        	mov a,[32]
 272  0009  0080     E  	mov rb,a
 272  000A  1F00     E  	clr rc
 273  000B              #line 273 "F:\HTMCU\MB-T006-HT66F0185\[TEST06] AD\3key.c"
 273  000B  0721        	mov a,[33]
 273  000C  0080     E  	mov rf,a
 273  000D  1F00     E  	clr rg
 274  000E              #line 274 "F:\HTMCU\MB-T006-HT66F0185\[TEST06] AD\3key.c"
 274  000E  0700     E  	mov a,ra
 274  000F  0080     E  	mov rd,a
 274  0010  1F00     E  	clr re
 274  0011  340A        	clr c
 274  0012  1A00     E  	rlca rd
 274  0013  0080     R  	mov _Get_AD_2[0],a
 274  0014  1A00     E  	rlca re
 274  0015  0080     R  	mov _Get_AD_2[1],a
 274  0016  0700     E  	mov a,rb
 274  0017  0080     E  	mov rd,a
 274  0018  0700     E  	mov a,rc
 274  0019  0080     E  	mov re,a
 274  001A  0F04        	mov a,4
 274  001B              _LI5:
 274  001B  340A        	clr c
 274  001C  1B80     E  	rrc re
 274  001D  1B80     E  	rrc rd
 274  001E  1785        	sdz acc
 274  001F  2800     R  	jmp _LI5
 274  0020  1100     E  	swapa rg
 274  0021  0EF0        	and a,0f0h
 274  0022  0080     R  	mov _Get_AD_2[3],a
 274  0023  1100     E  	swapa rf
 274  0024  0E0F        	and a,0fh
 274  0025  0580     R  	orm a,_Get_AD_2[3]
 274  0026  1100     E  	swapa rf
 274  0027  0EF0        	and a,0f0h
 274  0028  0080     R  	mov _Get_AD_2[2],a
 274  0029  0700     R  	mov a,_Get_AD_2[2]
 274  002A  0380     E  	addm a,rd
 274  002B  0700     R  	mov a,_Get_AD_2[3]
 274  002C  1380     E  	adcm a,re
文件：3key.c       编译器版本 HGASM 0202 页次14

 274  002D  0F00     R  	mov a,low offset _AD_Mun
 274  002E  0300     R  	add a,_Get_AD_2[0]
 274  002F  0083        	mov mp,a
 274  0030  0F00     R  	mov a,high offset _AD_Mun
 274  0031  1300     R  	adc a,_Get_AD_2[1]
 274  0032  0081        	mov sbp,a
 274  0033  0701        	mov a,sbp
 274  0034  0084        	mov bp,a
 274  0035  0700     E  	mov a,rd
 274  0036  0082        	mov ir,a
 274  0037  1483        	inc mp
 274  0038  0700     E  	mov a,re
 274  0039  0082        	mov ir,a
 262  003A              #line 262 "F:\HTMCU\MB-T006-HT66F0185\[TEST06] AD\3key.c"
 262  003A  1480     E  	inc ra
 262  003B  1780     E  	sdz rh
 262  003C  2800     R  	jmp _L156
 262  003D  0700     E  	mov a,rb
 262  003E  0080     R  	mov _ADL[0],a
 262  003F  0700     E  	mov a,rc
 262  0040  0080     R  	mov _ADL[1],a
 262  0041  0700     E  	mov a,rf
 262  0042  0080     R  	mov _ADH[0],a
 262  0043  0700     E  	mov a,rg
 262  0044  0080     R  	mov _ADH[1],a
 262  0045  0700     R  	mov a,_temp[0]
 262  0046  0080     R  	mov _Get_AD_2[2],a
 262  0047  0700     R  	mov a,_temp[1]
 262  0048  0080     R  	mov _Get_AD_2[3],a
 262  0049  0F09        	mov a,9
 262  004A  0080     R  	mov _Get_AD_2[0],a
 262  004B  0F01        	mov a,1
 262  004C  0080     E  	mov rh,a
 262  004D              _L155:
 284  004D              #line 284 "F:\HTMCU\MB-T006-HT66F0185\[TEST06] AD\3key.c"
 284  004D  1F00     E  	clr ra
 278  004E              #line 278 "F:\HTMCU\MB-T006-HT66F0185\[TEST06] AD\3key.c"
 278  004E  0700     E  	mov a,rh
 278  004F  0080     E  	mov rb,a
 278  0050  1F00     E  	clr rc
 278  0051  0F0A        	mov a,10
 278  0052  0200     E  	sub a,rb
 278  0053  0080     E  	mov rd,a
 278  0054  0F00        	mov a,0
 278  0055  1200     E  	sbc a,rc
 278  0056  0080     E  	mov re,a
 278  0057  0700     E  	mov a,rd
 278  0058  0080     R  	mov _Get_AD_2[6],a
 278  0059  0700     E  	mov a,re
 278  005A  0080     R  	mov _Get_AD_2[7],a
 278  005B              _L160:
 278  005B  0700     E  	mov a,ra
 278  005C  0080     E  	mov rd,a
 278  005D  1F00     E  	clr re
 278  005E  0700     E  	mov a,rd
 278  005F  0200     R  	sub a,_Get_AD_2[6]
 278  0060  0700     E  	mov a,re
 278  0061  1200     R  	sbc a,_Get_AD_2[7]
 278  0062  1185        	swap acc
 278  0063  040A        	xor a,status
文件：3key.c       编译器版本 HGASM 0202 页次15

 278  0064  3985        	snz acc.3
 278  0065  2800     R  	jmp _L161
 280  0066              #line 280 "F:\HTMCU\MB-T006-HT66F0185\[TEST06] AD\3key.c"
 280  0066  340A        	clr c
 280  0067  1A00     E  	rlca rd
 280  0068  0080     E  	mov rb,a
 280  0069  1A00     E  	rlca re
 280  006A  0080     E  	mov rc,a
 280  006B  0F00     R  	mov a,low offset _AD_Mun
 280  006C  0300     E  	add a,rb
 280  006D  0080     R  	mov _Get_AD_2[4],a
 280  006E  0F00     R  	mov a,high offset _AD_Mun
 280  006F  1300     E  	adc a,rc
 280  0070  0080     R  	mov _Get_AD_2[5],a
 280  0071  0700     R  	mov a,_Get_AD_2[4]
 280  0072  0083        	mov mp,a
 280  0073  0700     R  	mov a,_Get_AD_2[5]
 280  0074  0081        	mov sbp,a
 280  0075  2000     E  	call _Crom2Prom
 280  0076  0080     E  	mov rb,a
 280  0077  2000     E  	call _Crom2PromNext
 280  0078  0080     E  	mov rc,a
 280  0079  340A        	clr c
 280  007A  1A80     E  	rlc rd
 280  007B  1A80     E  	rlc re
 280  007C  0F00     R  	mov a,low (offset _AD_Mun+2)
 280  007D  0380     E  	addm a,rd
 280  007E  0F00     R  	mov a,high (offset _AD_Mun+2)
 280  007F  1380     E  	adcm a,re
 280  0080  0700     E  	mov a,rd
 280  0081  0083        	mov mp,a
 280  0082  0700     E  	mov a,re
 280  0083  0081        	mov sbp,a
 280  0084  2000     E  	call _Crom2Prom
 280  0085  0080     E  	mov rf,a
 280  0086  2000     E  	call _Crom2PromNext
 280  0087  0080     E  	mov rg,a
 280  0088  0700     E  	mov a,rf
 280  0089  0200     E  	sub a,rb
 280  008A  0700     E  	mov a,rg
 280  008B  1200     E  	sbc a,rc
 280  008C  3C0A        	sz c
 280  008D  2800     R  	jmp _L157
 283  008E              #line 283 "F:\HTMCU\MB-T006-HT66F0185\[TEST06] AD\3key.c"
 283  008E  0700     R  	mov a,_Get_AD_2[4]
 283  008F  0083        	mov mp,a
 283  0090  0700     R  	mov a,_Get_AD_2[5]
 283  0091  0081        	mov sbp,a
 283  0092  0701        	mov a,sbp
 283  0093  0084        	mov bp,a
 283  0094  0700     E  	mov a,rf
 283  0095  0082        	mov ir,a
 283  0096  1483        	inc mp
 283  0097  0700     E  	mov a,rg
 283  0098  0082        	mov ir,a
 284  0099              #line 284 "F:\HTMCU\MB-T006-HT66F0185\[TEST06] AD\3key.c"
 284  0099  0700     E  	mov a,rd
 284  009A  0083        	mov mp,a
 284  009B  0700     E  	mov a,re
 284  009C  0081        	mov sbp,a
文件：3key.c       编译器版本 HGASM 0202 页次16

 284  009D  0701        	mov a,sbp
 284  009E  0084        	mov bp,a
 284  009F  0700     E  	mov a,rb
 284  00A0  0082        	mov ir,a
 284  00A1  1483        	inc mp
 284  00A2  0700     E  	mov a,rc
 284  00A3  0082        	mov ir,a
 284  00A4  0700     E  	mov a,rb
 284  00A5  0080     R  	mov _Get_AD_2[2],a
 284  00A6  0700     E  	mov a,rc
 284  00A7  0080     R  	mov _Get_AD_2[3],a
 284  00A8              _L157:
 278  00A8              #line 278 "F:\HTMCU\MB-T006-HT66F0185\[TEST06] AD\3key.c"
 278  00A8  1480     E  	inc ra
 278  00A9  2800     R  	jmp _L160
 278  00AA              _L161:
 276  00AA              #line 276 "F:\HTMCU\MB-T006-HT66F0185\[TEST06] AD\3key.c"
 276  00AA  1480     E  	inc rh
 276  00AB  1780     R  	sdz _Get_AD_2[0]
 276  00AC  2800     R  	jmp _L155
 276  00AD  0700     R  	mov a,_Get_AD_2[2]
 276  00AE  0080     R  	mov _temp[0],a
 276  00AF  0700     R  	mov a,_Get_AD_2[3]
 276  00B0  0080     R  	mov _temp[1],a
 290  00B1              #line 290 "F:\HTMCU\MB-T006-HT66F0185\[TEST06] AD\3key.c"
 290  00B1  0700     R  	mov a,_AD_Mun[8]
 290  00B2  0080     E  	mov ra,a
 290  00B3  0700     R  	mov a,_AD_Mun[9]
 290  00B4  0080     E  	mov rb,a
 290  00B5  0003        	ret
 290  00B6              _Get_AD endp
 290  00B6              #line 290 "F:\HTMCU\MB-T006-HT66F0185\[TEST06] AD\3key.c"
 290  00B6              #pragma debug scope 1 1
 290  00B6              public _main
 290  00B6              #pragma debug scope 11 1
 295  00B6              #line 295 "F:\HTMCU\MB-T006-HT66F0185\[TEST06] AD\3key.c"
 295  00B6              IFDEF WITH_DEFAULT_STARTUP
 295  00B6              extern _main_initial0:near
 295  00B6              extern _main_startup:near
 295  00B6              ENDIF
 295  00B6              
 295  00B6              ROMBANK 0 @start
 295  0000              @start .section com_l 'code'
 295  0000              _main_startup1:
 295  0000              @start .section com_e 'code'
 295  0000  2800     R  	jmp _main
 295  0001              
 295  0000              _main .section 'code'
 295  0000              _main proc
 296  0000              #line 296 "F:\HTMCU\MB-T006-HT66F0185\[TEST06] AD\3key.c"
 296  0000              ;# 296 "F:\HTMCU\MB-T006-HT66F0185\[TEST06] AD\3key.c" 1
 296  0000              	IF 100>263690
 296  0000              ;# 296 "F:\HTMCU\MB-T006-HT66F0185\[TEST06] AD\3key.c" 1
 296  0000              	ERRMESSAGE 'the value 100of the argument exceeds the maxinum 263690'
 296  0000              	ENDIF
 296  0000              ;# 296 "F:\HTMCU\MB-T006-HT66F0185\[TEST06] AD\3key.c" 1
 296  0000              	IF 100<0
 296  0000              ;# 296 "F:\HTMCU\MB-T006-HT66F0185\[TEST06] AD\3key.c" 1
 296  0000              	ERRMESSAGE 'the value 100 of the argument exceeds the mininum 0'
 296  0000              	ENDIF
文件：3key.c       编译器版本 HGASM 0202 页次17

 296  0000              ;# 296 "F:\HTMCU\MB-T006-HT66F0185\[TEST06] AD\3key.c" 1
 296  0000              	IF 100==0
 296  0000              ;# 296 "F:\HTMCU\MB-T006-HT66F0185\[TEST06] AD\3key.c" 1
 296  0000              	JMP $
 296  0000              	ENDIF
 296  0000              ;# 296 "F:\HTMCU\MB-T006-HT66F0185\[TEST06] AD\3key.c" 1
 296  0000              	IF 100==1
 296  0000              ;# 296 "F:\HTMCU\MB-T006-HT66F0185\[TEST06] AD\3key.c" 1
 296  0000              	NOP
 296  0000              	ENDIF
 296  0000              ;# 296 "F:\HTMCU\MB-T006-HT66F0185\[TEST06] AD\3key.c" 1
 296  0000              	IF 100==2
 296  0000              ;# 296 "F:\HTMCU\MB-T006-HT66F0185\[TEST06] AD\3key.c" 1
 296  0000              	NOP
 296  0000              ;# 296 "F:\HTMCU\MB-T006-HT66F0185\[TEST06] AD\3key.c" 1
 296  0000              	NOP
 296  0000              	ENDIF
 296  0000              ;# 296 "F:\HTMCU\MB-T006-HT66F0185\[TEST06] AD\3key.c" 1
 296  0000              	IF 100==3
 296  0000              ;# 296 "F:\HTMCU\MB-T006-HT66F0185\[TEST06] AD\3key.c" 1
 296  0000              	NOP
 296  0000              ;# 296 "F:\HTMCU\MB-T006-HT66F0185\[TEST06] AD\3key.c" 1
 296  0000              	NOP
 296  0000              ;# 296 "F:\HTMCU\MB-T006-HT66F0185\[TEST06] AD\3key.c" 1
 296  0000              	NOP
 296  0000              	ENDIF
 296  0000              ;# 296 "F:\HTMCU\MB-T006-HT66F0185\[TEST06] AD\3key.c" 1
 296  0000              	IF (100<8) AND (100>3)
 296  0000              ;# 296 "F:\HTMCU\MB-T006-HT66F0185\[TEST06] AD\3key.c" 1
 296  0000              	CALL __DELAY3 + 7 -100
 296  0000              	ENDIF
 296  0000              ;# 296 "F:\HTMCU\MB-T006-HT66F0185\[TEST06] AD\3key.c" 1
 296  0000              	IF (100< 0404h) AND (100>7)
 296  0000              ;# 296 "F:\HTMCU\MB-T006-HT66F0185\[TEST06] AD\3key.c" 1
 296  0000  0F18        	MOV A,100/4-1
 296  0001              ;# 296 "F:\HTMCU\MB-T006-HT66F0185\[TEST06] AD\3key.c" 1
 296  0001  2000     E  	CALL __DELAYX3 + 3 -(100 MOD 4)
 296  0002              	ENDIF
 296  0002              ;# 296 "F:\HTMCU\MB-T006-HT66F0185\[TEST06] AD\3key.c" 1
 296  0002              	IF (100< 0x40B) AND (100> 0403h)
 296  0002              ;# 296 "F:\HTMCU\MB-T006-HT66F0185\[TEST06] AD\3key.c" 1
 296  0002              	MOV A,0 
 296  0002              ;# 296 "F:\HTMCU\MB-T006-HT66F0185\[TEST06] AD\3key.c" 1
 296  0002              	CALL __DELAYX6 + 0x40a -100
 296  0002              	ENDIF
 296  0002              ;# 296 "F:\HTMCU\MB-T006-HT66F0185\[TEST06] AD\3key.c" 1
 296  0002              	IF (100 >= 0x40b) AND ((((100-9)%0402h)/4+1)>256)
 296  0002              ;# 296 "F:\HTMCU\MB-T006-HT66F0185\[TEST06] AD\3key.c" 1
 296  0002              	MOV A,(100-9)/0402h
 296  0002              ;# 296 "F:\HTMCU\MB-T006-HT66F0185\[TEST06] AD\3key.c" 1
 296  0002              	MOV _builtin_holtek_delay_2,A
 296  0002              ;# 296 "F:\HTMCU\MB-T006-HT66F0185\[TEST06] AD\3key.c" 1
 296  0002              	MOV A,0
 296  0002              ;# 296 "F:\HTMCU\MB-T006-HT66F0185\[TEST06] AD\3key.c" 1
 296  0002              	CALL __DELAYY5 +5- (((100-9)%0402h)%6)
 296  0002              	ENDIF
 296  0002              ;# 296 "F:\HTMCU\MB-T006-HT66F0185\[TEST06] AD\3key.c" 1
 296  0002              	IF (100 >= 0x40b) AND ((((100-9)%0402h)/4+1)<=256)
 296  0002              ;# 296 "F:\HTMCU\MB-T006-HT66F0185\[TEST06] AD\3key.c" 1
 296  0002              	MOV A,(100-9)/0402h
文件：3key.c       编译器版本 HGASM 0202 页次18

 296  0002              ;# 296 "F:\HTMCU\MB-T006-HT66F0185\[TEST06] AD\3key.c" 1
 296  0002              	MOV _builtin_holtek_delay_2,A
 296  0002              ;# 296 "F:\HTMCU\MB-T006-HT66F0185\[TEST06] AD\3key.c" 1
 296  0002              	MOV A,((100-9)%0402h)/4+1
 296  0002              ;# 296 "F:\HTMCU\MB-T006-HT66F0185\[TEST06] AD\3key.c" 1
 296  0002              	CALL __DELAYY3 +3-(((100-9)%0402h)%4)
 296  0002              	ENDIF
 298  0002              #line 298 "F:\HTMCU\MB-T006-HT66F0185\[TEST06] AD\3key.c"
 298  0002  2000     R  	call _Init_clock
 300  0003              #line 300 "F:\HTMCU\MB-T006-HT66F0185\[TEST06] AD\3key.c"
 300  0003  1F00     R  	clr _GPIOA_INIT_2[2]
 300  0004  1F00     R  	clr _GPIOA_INIT_2[1]
 300  0005  1F00     R  	clr _GPIOA_INIT_2[0]
 300  0006  0FFF        	mov a,255
 300  0007  2000     R  	call _GPIOA_INIT
 301  0008              #line 301 "F:\HTMCU\MB-T006-HT66F0185\[TEST06] AD\3key.c"
 301  0008  1F00     R  	clr _GPIOB_INIT_2[1]
 301  0009  1F00     R  	clr _GPIOB_INIT_2[0]
 301  000A  0FFF        	mov a,255
 301  000B  2000     R  	call _GPIOB_INIT
 302  000C              #line 302 "F:\HTMCU\MB-T006-HT66F0185\[TEST06] AD\3key.c"
 302  000C  0F01        	mov a,1
 302  000D  0080     R  	mov _GPIOC_INIT_2[1],a
 302  000E  1F00     R  	clr _GPIOC_INIT_2[0]
 302  000F  0FFF        	mov a,255
 302  0010  2000     R  	call _GPIOC_INIT
 303  0011              #line 303 "F:\HTMCU\MB-T006-HT66F0185\[TEST06] AD\3key.c"
 303  0011  0F01        	mov a,1
 303  0012  0080     R  	mov _GPIOD_INIT_2[1],a
 303  0013  1F00     R  	clr _GPIOD_INIT_2[0]
 303  0014  0FFF        	mov a,255
 303  0015  2000     R  	call _GPIOD_INIT
 306  0016              #line 306 "F:\HTMCU\MB-T006-HT66F0185\[TEST06] AD\3key.c"
 306  0016  0F01        	mov a,1
 306  0017  0080     R  	mov _GPIOB_INIT_2[1],a
 306  0018  0F01        	mov a,1
 306  0019  0080     R  	mov _GPIOB_INIT_2[0],a
 306  001A  0F48        	mov a,72
 306  001B  2000     R  	call _GPIOB_INIT
 307  001C              #line 307 "F:\HTMCU\MB-T006-HT66F0185\[TEST06] AD\3key.c"
 307  001C  0F01        	mov a,1
 307  001D  0080     R  	mov _GPIOA_INIT_2[2],a
 307  001E  1F00     R  	clr _GPIOA_INIT_2[1]
 307  001F  1F00     R  	clr _GPIOA_INIT_2[0]
 307  0020  0F02        	mov a,2
 307  0021  2000     R  	call _GPIOA_INIT
 311  0022              #line 311 "F:\HTMCU\MB-T006-HT66F0185\[TEST06] AD\3key.c"
 311  0022  1F00     R  	clr _num1[0]
 312  0023              #line 312 "F:\HTMCU\MB-T006-HT66F0185\[TEST06] AD\3key.c"
 312  0023  0F01        	mov a,1
 312  0024  0080     R  	mov _num2[0],a
 313  0025              #line 313 "F:\HTMCU\MB-T006-HT66F0185\[TEST06] AD\3key.c"
 313  0025  0F02        	mov a,2
 313  0026  0080     R  	mov _num3[0],a
 313  0027  1F00     R  	clr _num3[1]
 313  0028              _L170:
 314  0028              #line 314 "F:\HTMCU\MB-T006-HT66F0185\[TEST06] AD\3key.c"
 314  0028  0F0A        	mov a,10
 314  0029  0080     R  	mov _num4[0],a
 314  002A  1F00     R  	clr _num4[1]
文件：3key.c       编译器版本 HGASM 0202 页次19

 315  002B              #line 315 "F:\HTMCU\MB-T006-HT66F0185\[TEST06] AD\3key.c"
 315  002B  0F00     R  	mov a,low offset _num
 315  002C  0300     R  	add a,_num1[0]
 315  002D  0083        	mov mp,a
 315  002E  0F00     R  	mov a,high offset _num
 315  002F  1F01        	clr sbp
 315  0030  1381        	adcm a,sbp
 315  0031  2000     E  	call _Crom2Prom
 315  0032  0080     R  	mov _uF4[0],a
 316  0033              #line 316 "F:\HTMCU\MB-T006-HT66F0185\[TEST06] AD\3key.c"
 316  0033  0F00     R  	mov a,low offset _num
 316  0034  0300     R  	add a,_num2[0]
 316  0035  0083        	mov mp,a
 316  0036  0F00     R  	mov a,high offset _num
 316  0037  1F01        	clr sbp
 316  0038  1381        	adcm a,sbp
 316  0039  2000     E  	call _Crom2Prom
 316  003A  0080     R  	mov _uF5[0],a
 317  003B              #line 317 "F:\HTMCU\MB-T006-HT66F0185\[TEST06] AD\3key.c"
 317  003B  0F00     R  	mov a,low offset _num
 317  003C  0300     R  	add a,_num3[0]
 317  003D  0083        	mov mp,a
 317  003E  0F00     R  	mov a,high offset _num
 317  003F  1300     R  	adc a,_num3[1]
 317  0040  0081        	mov sbp,a
 317  0041  2000     E  	call _Crom2Prom
 317  0042  0080     R  	mov _uF6[0],a
 318  0043              #line 318 "F:\HTMCU\MB-T006-HT66F0185\[TEST06] AD\3key.c"
 318  0043  0F00     R  	mov a,low offset _num
 318  0044  0300     R  	add a,_num4[0]
 318  0045  0083        	mov mp,a
 318  0046  0F00     R  	mov a,high offset _num
 318  0047  1300     R  	adc a,_num4[1]
 318  0048  0081        	mov sbp,a
 318  0049  2000     E  	call _Crom2Prom
 318  004A  0080     R  	mov _uF7[0],a
 318  004B              _L165:
 322  004B              #line 322 "F:\HTMCU\MB-T006-HT66F0185\[TEST06] AD\3key.c"
 322  004B              ;# 322 "F:\HTMCU\MB-T006-HT66F0185\[TEST06] AD\3key.c" 1
 322  004B  0001        	clr wdt
 324  004C              #line 324 "F:\HTMCU\MB-T006-HT66F0185\[TEST06] AD\3key.c"
 324  004C  3800     R  	snz _uF1[0].0
 324  004D  2800     R  	jmp _L163
 326  004E              #line 326 "F:\HTMCU\MB-T006-HT66F0185\[TEST06] AD\3key.c"
 326  004E  3400     R  	clr _uF1[0].0
 327  004F              #line 327 "F:\HTMCU\MB-T006-HT66F0185\[TEST06] AD\3key.c"
 327  004F  2000     R  	call _Get_AD
 327  0050  0700     E  	mov a,ra
 327  0051  0080     R  	mov _AD_NEW[0],a
 327  0052  0700     E  	mov a,rb
 327  0053  0080     R  	mov _AD_NEW[1],a
 327  0054              _L163:
 329  0054              #line 329 "F:\HTMCU\MB-T006-HT66F0185\[TEST06] AD\3key.c"
 329  0054  0700     R  	mov a,_AD_NEW[1]
 329  0055  0080     E  	mov _builtin_holtek_mant1[1],a
 329  0056  0700     R  	mov a,_AD_NEW[0]
 329  0057  0080     E  	mov _builtin_holtek_mant1[0],a
 329  0058  3400     E  	clr _builtin_holtek_signs.0
 329  0059  2000     E  	call _builtin_holtek_uitof
 329  005A  0700     E  	mov a,_builtin_holtek_mant1[2]
文件：3key.c       编译器版本 HGASM 0202 页次20

 329  005B  0080     E  	mov re,a
 329  005C  0700     E  	mov a,_builtin_holtek_mant1[1]
 329  005D  0080     E  	mov rd,a
 329  005E  0700     E  	mov a,_builtin_holtek_mant1[0]
 329  005F  0080     E  	mov rc,a
 329  0060  0700     E  	mov a,rc
 329  0061  0400     R  	xor a,_AD_Last[0]
 329  0062  0700     E  	mov a,rd
 329  0063  3D0A        	sz z
 329  0064  0400     R  	xor a,_AD_Last[1]
 329  0065  0700     E  	mov a,re
 329  0066  3D0A        	sz z
 329  0067  0400     R  	xor a,_AD_Last[2]
 329  0068  3D0A        	sz z
 329  0069  2800     R  	jmp _L165
 335  006A              #line 335 "F:\HTMCU\MB-T006-HT66F0185\[TEST06] AD\3key.c"
 335  006A  0700     E  	mov a,rc
 335  006B  0080     R  	mov _AD_Last[0],a
 335  006C  0700     E  	mov a,rd
 335  006D  0080     R  	mov _AD_Last[1],a
 335  006E  0700     E  	mov a,re
 335  006F  0080     R  	mov _AD_Last[2],a
 336  0070              #line 336 "F:\HTMCU\MB-T006-HT66F0185\[TEST06] AD\3key.c"
 336  0070  0700     E  	mov a,re
 336  0071  0080     E  	mov _builtin_holtek_mant1[2],a
 336  0072  0700     E  	mov a,rd
 336  0073  0080     E  	mov _builtin_holtek_mant1[1],a
 336  0074  0700     E  	mov a,rc
 336  0075  0080     E  	mov _builtin_holtek_mant1[0],a
 336  0076  0F40        	mov a,64
 336  0077  0080     E  	mov _builtin_holtek_mant2[2],a
 336  0078  0FA0        	mov a,160
 336  0079  0080     E  	mov _builtin_holtek_mant2[1],a
 336  007A  0F00        	mov a,0
 336  007B  0080     E  	mov _builtin_holtek_mant2[0],a
 336  007C  2000     E  	call _builtin_holtek_ftmul
 336  007D  0700     E  	mov a,_builtin_holtek_mant1[2]
 336  007E  0080     E  	mov re,a
 336  007F  0700     E  	mov a,_builtin_holtek_mant1[1]
 336  0080  0080     E  	mov rd,a
 336  0081  0700     E  	mov a,_builtin_holtek_mant1[0]
 336  0082  0080     E  	mov rc,a
 336  0083  0700     E  	mov a,re
 336  0084  0080     E  	mov _builtin_holtek_mant1[2],a
 336  0085  0700     E  	mov a,rd
 336  0086  0080     E  	mov _builtin_holtek_mant1[1],a
 336  0087  0700     E  	mov a,rc
 336  0088  0080     E  	mov _builtin_holtek_mant1[0],a
 336  0089  0F45        	mov a,69
 336  008A  0080     E  	mov _builtin_holtek_mant2[2],a
 336  008B  0F7F        	mov a,127
 336  008C  0080     E  	mov _builtin_holtek_mant2[1],a
 336  008D  0FF0        	mov a,240
 336  008E  0080     E  	mov _builtin_holtek_mant2[0],a
 336  008F  2000     E  	call _builtin_holtek_ftdiv
 336  0090  0700     E  	mov a,_builtin_holtek_mant1[2]
 336  0091  0080     E  	mov re,a
 336  0092  0700     E  	mov a,_builtin_holtek_mant1[1]
 336  0093  0080     E  	mov rd,a
 336  0094  0700     E  	mov a,_builtin_holtek_mant1[0]
文件：3key.c       编译器版本 HGASM 0202 页次21

 336  0095  0080     E  	mov rc,a
 336  0096  0700     E  	mov a,rc
 336  0097  0080     R  	mov _AD_Value[0],a
 336  0098  0700     E  	mov a,rd
 336  0099  0080     R  	mov _AD_Value[1],a
 336  009A  0700     E  	mov a,re
 336  009B  0080     R  	mov _AD_Value[2],a
 337  009C              #line 337 "F:\HTMCU\MB-T006-HT66F0185\[TEST06] AD\3key.c"
 337  009C  0700     E  	mov a,re
 337  009D  0080     E  	mov _builtin_holtek_mant1[2],a
 337  009E  0700     E  	mov a,rd
 337  009F  0080     E  	mov _builtin_holtek_mant1[1],a
 337  00A0  0700     E  	mov a,rc
 337  00A1  0080     E  	mov _builtin_holtek_mant1[0],a
 337  00A2  0F42        	mov a,66
 337  00A3  0080     E  	mov _builtin_holtek_mant2[2],a
 337  00A4  0FC8        	mov a,200
 337  00A5  0080     E  	mov _builtin_holtek_mant2[1],a
 337  00A6  0F00        	mov a,0
 337  00A7  0080     E  	mov _builtin_holtek_mant2[0],a
 337  00A8  2000     E  	call _builtin_holtek_ftmul
 337  00A9  0700     E  	mov a,_builtin_holtek_mant1[2]
 337  00AA  0080     E  	mov re,a
 337  00AB  0700     E  	mov a,_builtin_holtek_mant1[1]
 337  00AC  0080     E  	mov rd,a
 337  00AD  0700     E  	mov a,_builtin_holtek_mant1[0]
 337  00AE  0080     E  	mov rc,a
 337  00AF  1F00     E  	clr _builtin_holtek_mant12p[0]
 337  00B0  0700     E  	mov a,re
 337  00B1  0080     E  	mov _builtin_holtek_mant1[2],a
 337  00B2  0700     E  	mov a,rd
 337  00B3  0080     E  	mov _builtin_holtek_mant1[1],a
 337  00B4  0700     E  	mov a,rc
 337  00B5  0080     E  	mov _builtin_holtek_mant1[0],a
 337  00B6  2000     E  	call _builtin_holtek_ftol
 337  00B7  0700     E  	mov a,_builtin_holtek_mant12p[0]
 337  00B8  0080     E  	mov rg,a
 337  00B9  0700     E  	mov a,_builtin_holtek_mant1[2]
 337  00BA  0080     E  	mov rf,a
 337  00BB  0700     E  	mov a,_builtin_holtek_mant1[1]
 337  00BC  0080     E  	mov re,a
 337  00BD  0700     E  	mov a,_builtin_holtek_mant1[0]
 337  00BE  0080     E  	mov rd,a
 337  00BF  0700     E  	mov a,rd
 337  00C0  0080     R  	mov _Voltage[0],a
 337  00C1  0700     E  	mov a,re
 337  00C2  0080     R  	mov _Voltage[1],a
 338  00C3              #line 338 "F:\HTMCU\MB-T006-HT66F0185\[TEST06] AD\3key.c"
 338  00C3  1F00     E  	clr _builtin_holtek_udivmodhi4_2[6]
 338  00C4  0700     E  	mov a,rd  
 338  00C5  0080     E  	mov _builtin_holtek_udivmodhi4_2[0],a  
 338  00C6  0700     E  	mov a,re  
 338  00C7  0080     E  	mov _builtin_holtek_udivmodhi4_2[1],a
 338  00C8  0F64        	mov a,100  
 338  00C9  0080     E  	mov _builtin_holtek_udivmodhi4_2[2],a  
 338  00CA  1F00     E  	clr _builtin_holtek_udivmodhi4_2[3]
 338  00CB  2000     E  	call _builtin_holtek_udivmodhi4
 338  00CC  0700     E  	mov a,_builtin_holtek_udivmodhi4_2[0]  
 338  00CD  0080     E  	mov rb,a  
 338  00CE  0700     E  	mov a,_builtin_holtek_udivmodhi4_2[1]  
文件：3key.c       编译器版本 HGASM 0202 页次22

 338  00CF  0080     E  	mov rc,a
 338  00D0  0700     E  	mov a,rb
 338  00D1  0080     R  	mov _num1[0],a
 339  00D2              #line 339 "F:\HTMCU\MB-T006-HT66F0185\[TEST06] AD\3key.c"
 339  00D2  1F00     E  	clr _builtin_holtek_udivmodhi4_2[6]
 339  00D3  0700     E  	mov a,rd  
 339  00D4  0080     E  	mov _builtin_holtek_udivmodhi4_2[0],a  
 339  00D5  0700     E  	mov a,re  
 339  00D6  0080     E  	mov _builtin_holtek_udivmodhi4_2[1],a
 339  00D7  0F0A        	mov a,10  
 339  00D8  0080     E  	mov _builtin_holtek_udivmodhi4_2[2],a  
 339  00D9  1F00     E  	clr _builtin_holtek_udivmodhi4_2[3]
 339  00DA  2000     E  	call _builtin_holtek_udivmodhi4
 339  00DB  0700     E  	mov a,_builtin_holtek_udivmodhi4_2[0]  
 339  00DC  0080     E  	mov rb,a  
 339  00DD  0700     E  	mov a,_builtin_holtek_udivmodhi4_2[1]  
 339  00DE  0080     E  	mov rc,a
 339  00DF  1F00     E  	clr _builtin_holtek_udivmodhi4_2[6]
 339  00E0  0700     E  	mov a,rb  
 339  00E1  0080     E  	mov _builtin_holtek_udivmodhi4_2[0],a  
 339  00E2  0700     E  	mov a,rc  
 339  00E3  0080     E  	mov _builtin_holtek_udivmodhi4_2[1],a
 339  00E4  0F0A        	mov a,10  
 339  00E5  0080     E  	mov _builtin_holtek_udivmodhi4_2[2],a  
 339  00E6  1F00     E  	clr _builtin_holtek_udivmodhi4_2[3]
 339  00E7  2000     E  	call _builtin_holtek_udivmodhi4
 339  00E8  0700     E  	mov a,_builtin_holtek_udivmodhi4_2[4]  
 339  00E9  0080     E  	mov rb,a  
 339  00EA  0700     E  	mov a,_builtin_holtek_udivmodhi4_2[5]  
 339  00EB  0080     E  	mov rc,a
 339  00EC  0700     E  	mov a,rb
 339  00ED  0080     R  	mov _num2[0],a
 340  00EE              #line 340 "F:\HTMCU\MB-T006-HT66F0185\[TEST06] AD\3key.c"
 340  00EE  1F00     E  	clr _builtin_holtek_udivmodhi4_2[6]
 340  00EF  0700     E  	mov a,rd  
 340  00F0  0080     E  	mov _builtin_holtek_udivmodhi4_2[0],a  
 340  00F1  0700     E  	mov a,re  
 340  00F2  0080     E  	mov _builtin_holtek_udivmodhi4_2[1],a
 340  00F3  0F0A        	mov a,10  
 340  00F4  0080     E  	mov _builtin_holtek_udivmodhi4_2[2],a  
 340  00F5  1F00     E  	clr _builtin_holtek_udivmodhi4_2[3]
 340  00F6  2000     E  	call _builtin_holtek_udivmodhi4
 340  00F7  0700     E  	mov a,_builtin_holtek_udivmodhi4_2[4]  
 340  00F8  0080     R  	mov _num3[0],a  
 340  00F9  0700     E  	mov a,_builtin_holtek_udivmodhi4_2[5]  
 340  00FA  0080     R  	mov _num3[1],a
 340  00FB  2800     R  	jmp _L170
 340  00FC  2800     R  	jmp $
 340  00FD              _main endp
 340  00FD              
 340  00FD              @dummy endp
 340  00FD              
 340  00FD              #line 340 "F:\HTMCU\MB-T006-HT66F0185\[TEST06] AD\3key.c"
 340  00FD              #pragma debug scope 1 1
 340  0000              @crom	.section 'crom'

 225  0000              #line 225 "F:\HTMCU\MB-T006-HT66F0185\[TEST06] AD\init.h"
 225  0000              @crom	.section	'crom'
 225  0000              _num:
 225  0000              #pragma debug array 42 8 11 1
文件：init.h       编译器版本 HGASM 0202 页次23

 225  0000              #pragma debug array 42 8 11 1
 225  0000              #pragma debug variable 42 1 _num "num"
 225  0000              	db 63
 225  0001              	db 6
 225  0001              	db 91
 225  0002              	db 79
 225  0002              	db 102
 225  0003              	db 109
 225  0003              	db 125
 225  0004              	db 7
 225  0004              	db 127
 225  0005              	db 111
 225  0005              	db 126
 214  0006              #line 214 "F:\HTMCU\MB-T006-HT66F0185\[TEST06] AD\init.h"
 214  0006              public _Voltage
 214  0000              @HCCINIT0 .section 'data'
 214  0000  0002[       _Voltage	db 2 dup(0)
            00
            ]
 214  0002              #pragma debug variable 12 1 _Voltage "Voltage"
 214  0002              
 214  0000              @HCCINIT .section 'data'
 213  0000              #line 213 "F:\HTMCU\MB-T006-HT66F0185\[TEST06] AD\init.h"
 213  0000              public _AD_Value
 213  0002              @HCCINIT0 .section 'data'
 213  0002  0003[       _AD_Value	db 3 dup(0)
            00
            ]
 213  0005              #pragma debug variable 28 1 _AD_Value "AD_Value"
 213  0005              
 213  0000              @HCCINIT .section 'data'
 212  0000              #line 212 "F:\HTMCU\MB-T006-HT66F0185\[TEST06] AD\init.h"
 212  0000              public _AD_Last
 212  0005              @HCCINIT0 .section 'data'
 212  0005  0003[       _AD_Last	db 3 dup(0)
            00
            ]
 212  0008              #pragma debug variable 28 1 _AD_Last "AD_Last"
 212  0008              
 212  0000              @HCCINIT .section 'data'
 211  0000              #line 211 "F:\HTMCU\MB-T006-HT66F0185\[TEST06] AD\init.h"
 211  0000              public _AD_NEW
 211  0008              @HCCINIT0 .section 'data'
 211  0008  0002[       _AD_NEW	db 2 dup(0)
            00
            ]
 211  000A              #pragma debug variable 12 1 _AD_NEW "AD_NEW"
 211  000A              
 211  0000              @HCCINIT .section 'data'
 210  0000              #line 210 "F:\HTMCU\MB-T006-HT66F0185\[TEST06] AD\init.h"
 210  0000              public _temp1
 210  000A              @HCCINIT0 .section 'data'
 210  000A  0002[       _temp1	db 2 dup(0)
            00
            ]
 210  000C              #pragma debug variable 12 1 _temp1 "temp1"
 210  000C              
 210  0000              @HCCINIT .section 'data'
 210  0000              #line 210 "F:\HTMCU\MB-T006-HT66F0185\[TEST06] AD\init.h"
 210  0000              public _temp
文件：init.h       编译器版本 HGASM 0202 页次24

 210  000C              @HCCINIT0 .section 'data'
 210  000C  0002[       _temp	db 2 dup(0)
            00
            ]
 210  000E              #pragma debug variable 12 1 _temp "temp"
 210  000E              
 210  0000              @HCCINIT .section 'data'
 209  0000              #line 209 "F:\HTMCU\MB-T006-HT66F0185\[TEST06] AD\init.h"
 209  0000              public _AD_Mun
 209  000E              @HCCINIT0 .section 'data'
 209  000E  0014[       _AD_Mun	db 20 dup(0)
            00
            ]
 209  0022              #pragma debug array 43 12 10 1
 209  0022              #pragma debug array 43 12 10 1
 209  0022              #pragma debug variable 43 1 _AD_Mun "AD_Mun"
 209  0022              
 209  0000              @HCCINIT .section 'data'
 208  0000              #line 208 "F:\HTMCU\MB-T006-HT66F0185\[TEST06] AD\init.h"
 208  0000              public _ADL
 208  0022              @HCCINIT0 .section 'data'
 208  0022  0002[       _ADL	db 2 dup(0)
            00
            ]
 208  0024              #pragma debug variable 12 1 _ADL "ADL"
 208  0024              
 208  0000              @HCCINIT .section 'data'
 208  0000              #line 208 "F:\HTMCU\MB-T006-HT66F0185\[TEST06] AD\init.h"
 208  0000              public _ADH
 208  0024              @HCCINIT0 .section 'data'
 208  0024  0002[       _ADH	db 2 dup(0)
            00
            ]
 208  0026              #pragma debug variable 12 1 _ADH "ADH"
 208  0026              
 208  0000              @HCCINIT .section 'data'
 208  0000              #line 208 "F:\HTMCU\MB-T006-HT66F0185\[TEST06] AD\init.h"
 208  0000              public _AD_Count
 208  0026              @HCCINIT0 .section 'data'
 208  0026  0002[       _AD_Count	db 2 dup(0)
            00
            ]
 208  0028              #pragma debug variable 12 1 _AD_Count "AD_Count"
 208  0028              
 208  0000              @HCCINIT .section 'data'
 201  0000              #line 201 "F:\HTMCU\MB-T006-HT66F0185\[TEST06] AD\init.h"
 201  0000              public _bBbSound
 201  0028              @HCCINIT0 .section 'data'
 201  0028              _bBbSound	db 0
 201  0029              #pragma debug variable 7 1 _bBbSound "bBbSound"
 201  0029              
 201  0000              @HCCINIT .section 'data'
 200  0000              #line 200 "F:\HTMCU\MB-T006-HT66F0185\[TEST06] AD\init.h"
 200  0000              public _bbCnt
 200  0029              @HCCINIT0 .section 'data'
 200  0029              _bbCnt	db 0
 200  002A              #pragma debug variable 8 1 _bbCnt "bbCnt"
 200  002A              
 200  0000              @HCCINIT .section 'data'
 199  0000              #line 199 "F:\HTMCU\MB-T006-HT66F0185\[TEST06] AD\init.h"
文件：init.h       编译器版本 HGASM 0202 页次25

 199  0000              public _bbTime
 199  002A              @HCCINIT0 .section 'data'
 199  002A  0002[       _bbTime	db 2 dup(0)
            00
            ]
 199  002C              #pragma debug variable 12 1 _bbTime "bbTime"
 199  002C              
 199  0000              @HCCINIT .section 'data'
 198  0000              #line 198 "F:\HTMCU\MB-T006-HT66F0185\[TEST06] AD\init.h"
 198  0000              public _bbRam
 198  002C              @HCCINIT0 .section 'data'
 198  002C              _bbRam	db 0
 198  002D              #pragma debug variable 8 1 _bbRam "bbRam"
 198  002D              
 198  0000              @HCCINIT .section 'data'
 195  0000              #line 195 "F:\HTMCU\MB-T006-HT66F0185\[TEST06] AD\init.h"
 195  0000              public _num8
 195  002D              @HCCINIT0 .section 'data'
 195  002D              _num8	db 0
 195  002E              #pragma debug variable 8 1 _num8 "num8"
 195  002E              
 195  0000              @HCCINIT .section 'data'
 194  0000              #line 194 "F:\HTMCU\MB-T006-HT66F0185\[TEST06] AD\init.h"
 194  0000              public _num7
 194  002E              @HCCINIT0 .section 'data'
 194  002E              _num7	db 0
 194  002F              #pragma debug variable 8 1 _num7 "num7"
 194  002F              
 194  0000              @HCCINIT .section 'data'
 193  0000              #line 193 "F:\HTMCU\MB-T006-HT66F0185\[TEST06] AD\init.h"
 193  0000              public _num6
 193  002F              @HCCINIT0 .section 'data'
 193  002F              _num6	db 0
 193  0030              #pragma debug variable 8 1 _num6 "num6"
 193  0030              
 193  0000              @HCCINIT .section 'data'
 192  0000              #line 192 "F:\HTMCU\MB-T006-HT66F0185\[TEST06] AD\init.h"
 192  0000              public _num5
 192  0030              @HCCINIT0 .section 'data'
 192  0030              _num5	db 0
 192  0031              #pragma debug variable 8 1 _num5 "num5"
 192  0031              
 192  0000              @HCCINIT .section 'data'
 191  0000              #line 191 "F:\HTMCU\MB-T006-HT66F0185\[TEST06] AD\init.h"
 191  0000              public _num4
 191  0031              @HCCINIT0 .section 'data'
 191  0031  0002[       _num4	db 2 dup(0)
            00
            ]
 191  0033              #pragma debug variable 12 1 _num4 "num4"
 191  0033              
 191  0000              @HCCINIT .section 'data'
 190  0000              #line 190 "F:\HTMCU\MB-T006-HT66F0185\[TEST06] AD\init.h"
 190  0000              public _num3
 190  0033              @HCCINIT0 .section 'data'
 190  0033  0002[       _num3	db 2 dup(0)
            00
            ]
 190  0035              #pragma debug variable 12 1 _num3 "num3"
 190  0035              
文件：init.h       编译器版本 HGASM 0202 页次26

 190  0000              @HCCINIT .section 'data'
 189  0000              #line 189 "F:\HTMCU\MB-T006-HT66F0185\[TEST06] AD\init.h"
 189  0000              public _num2
 189  0035              @HCCINIT0 .section 'data'
 189  0035              _num2	db 0
 189  0036              #pragma debug variable 8 1 _num2 "num2"
 189  0036              
 189  0000              @HCCINIT .section 'data'
 188  0000              #line 188 "F:\HTMCU\MB-T006-HT66F0185\[TEST06] AD\init.h"
 188  0000              public _num1
 188  0036              @HCCINIT0 .section 'data'
 188  0036              _num1	db 0
 188  0037              #pragma debug variable 8 1 _num1 "num1"
 188  0037              
 188  0000              @HCCINIT .section 'data'
 186  0000              #line 186 "F:\HTMCU\MB-T006-HT66F0185\[TEST06] AD\init.h"
 186  0000              public _wei
 186  0037              @HCCINIT0 .section 'data'
 186  0037              _wei	db 0
 186  0038              #pragma debug variable 8 1 _wei "wei"
 186  0038              
 186  0000              @HCCINIT .section 'data'
 184  0000              #line 184 "F:\HTMCU\MB-T006-HT66F0185\[TEST06] AD\init.h"
 184  0000              public _sum1
 184  0038              @HCCINIT0 .section 'data'
 184  0038  0002[       _sum1	db 2 dup(0)
            00
            ]
 184  003A              #pragma debug variable 12 1 _sum1 "sum1"
 184  003A              
 184  0000              @HCCINIT .section 'data'
 183  0000              #line 183 "F:\HTMCU\MB-T006-HT66F0185\[TEST06] AD\init.h"
 183  0000              public _sum
 183  003A              @HCCINIT0 .section 'data'
 183  003A  0002[       _sum	db 2 dup(0)
            00
            ]
 183  003C              #pragma debug variable 12 1 _sum "sum"
 183  003C              
 183  0000              @HCCINIT .section 'data'
 181  0000              #line 181 "F:\HTMCU\MB-T006-HT66F0185\[TEST06] AD\init.h"
 181  0000              public _value
 181  003C              @HCCINIT0 .section 'data'
 181  003C              _value	db 0
 181  003D              #pragma debug variable 7 1 _value "value"
 181  003D              
 181  0000              @HCCINIT .section 'data'
 180  0000              #line 180 "F:\HTMCU\MB-T006-HT66F0185\[TEST06] AD\init.h"
 180  0000              public _keystep
 180  003D              @HCCINIT0 .section 'data'
 180  003D              _keystep	db 0
 180  003E              #pragma debug variable 8 1 _keystep "keystep"
 180  003E              
 180  0000              @HCCINIT .section 'data'
 179  0000              #line 179 "F:\HTMCU\MB-T006-HT66F0185\[TEST06] AD\init.h"
 179  0000              public _step3
 179  003E              @HCCINIT0 .section 'data'
 179  003E              _step3	db 0
 179  003F              #pragma debug variable 8 1 _step3 "step3"
 179  003F              
文件：init.h       编译器版本 HGASM 0202 页次27

 179  0000              @HCCINIT .section 'data'
 178  0000              #line 178 "F:\HTMCU\MB-T006-HT66F0185\[TEST06] AD\init.h"
 178  0000              public _step2
 178  003F              @HCCINIT0 .section 'data'
 178  003F              _step2	db 0
 178  0040              #pragma debug variable 8 1 _step2 "step2"
 178  0040              
 178  0000              @HCCINIT .section 'data'
 177  0000              #line 177 "F:\HTMCU\MB-T006-HT66F0185\[TEST06] AD\init.h"
 177  0000              public _step1
 177  0040              @HCCINIT0 .section 'data'
 177  0040              _step1	db 0
 177  0041              #pragma debug variable 8 1 _step1 "step1"
 177  0041              
 177  0000              @HCCINIT .section 'data'
 176  0000              #line 176 "F:\HTMCU\MB-T006-HT66F0185\[TEST06] AD\init.h"
 176  0000              public _step
 176  0041              @HCCINIT0 .section 'data'
 176  0041              _step	db 0
 176  0042              #pragma debug variable 8 1 _step "step"
 176  0042              
 176  0000              @HCCINIT .section 'data'
 175  0000              #line 175 "F:\HTMCU\MB-T006-HT66F0185\[TEST06] AD\init.h"
 175  0000              public _data
 175  0042              @HCCINIT0 .section 'data'
 175  0042              _data	db 0
 175  0043              #pragma debug variable 8 1 _data "data"
 175  0043              
 175  0000              @HCCINIT .section 'data'
 173  0000              #line 173 "F:\HTMCU\MB-T006-HT66F0185\[TEST06] AD\init.h"
 173  0000              public _t2s
 173  0043              @HCCINIT0 .section 'data'
 173  0043              _t2s	db 0
 173  0044              #pragma debug variable 8 1 _t2s "t2s"
 173  0044              
 173  0000              @HCCINIT .section 'data'
 172  0000              #line 172 "F:\HTMCU\MB-T006-HT66F0185\[TEST06] AD\init.h"
 172  0000              public _t10s
 172  0044              @HCCINIT0 .section 'data'
 172  0044              _t10s	db 0
 172  0045              #pragma debug variable 8 1 _t10s "t10s"
 172  0045              
 172  0000              @HCCINIT .section 'data'
 171  0000              #line 171 "F:\HTMCU\MB-T006-HT66F0185\[TEST06] AD\init.h"
 171  0000              public _tms4
 171  0045              @HCCINIT0 .section 'data'
 171  0045              _tms4	db 0
 171  0046              #pragma debug variable 8 1 _tms4 "tms4"
 171  0046              
 171  0000              @HCCINIT .section 'data'
 170  0000              #line 170 "F:\HTMCU\MB-T006-HT66F0185\[TEST06] AD\init.h"
 170  0000              public _tms3
 170  0046              @HCCINIT0 .section 'data'
 170  0046              _tms3	db 0
 170  0047              #pragma debug variable 8 1 _tms3 "tms3"
 170  0047              
 170  0000              @HCCINIT .section 'data'
 169  0000              #line 169 "F:\HTMCU\MB-T006-HT66F0185\[TEST06] AD\init.h"
 169  0000              public _tms2
 169  0047              @HCCINIT0 .section 'data'
文件：init.h       编译器版本 HGASM 0202 页次28

 169  0047              _tms2	db 0
 169  0048              #pragma debug variable 8 1 _tms2 "tms2"
 169  0048              
 169  0000              @HCCINIT .section 'data'
 168  0000              #line 168 "F:\HTMCU\MB-T006-HT66F0185\[TEST06] AD\init.h"
 168  0000              public _tms1
 168  0048              @HCCINIT0 .section 'data'
 168  0048              _tms1	db 0
 168  0049              #pragma debug variable 8 1 _tms1 "tms1"
 168  0049              
 168  0000              @HCCINIT .section 'data'
 167  0000              #line 167 "F:\HTMCU\MB-T006-HT66F0185\[TEST06] AD\init.h"
 167  0000              public _tms
 167  0049              @HCCINIT0 .section 'data'
 167  0049  0002[       _tms	db 2 dup(0)
            00
            ]
 167  004B              #pragma debug variable 12 1 _tms "tms"
 167  004B              
 167  0000              @HCCINIT .section 'data'
 164  0000              #line 164 "F:\HTMCU\MB-T006-HT66F0185\[TEST06] AD\init.h"
 164  0000              public _bj_second
 164  004B              @HCCINIT0 .section 'data'
 164  004B              _bj_second	db 0
 164  004C              #pragma debug variable 7 1 _bj_second "bj_second"
 164  004C              
 164  0000              @HCCINIT .section 'data'
 163  0000              #line 163 "F:\HTMCU\MB-T006-HT66F0185\[TEST06] AD\init.h"
 163  0000              public _bj_min
 163  004C              @HCCINIT0 .section 'data'
 163  004C              _bj_min	db 0
 163  004D              #pragma debug variable 7 1 _bj_min "bj_min"
 163  004D              
 163  0000              @HCCINIT .section 'data'
 161  0000              #line 161 "F:\HTMCU\MB-T006-HT66F0185\[TEST06] AD\init.h"
 161  0000              public _peking_min1
 161  004D              @HCCINIT0 .section 'data'
 161  004D              _peking_min1	db 0
 161  004E              #pragma debug variable 7 1 _peking_min1 "peking_min1"
 161  004E              
 161  0000              @HCCINIT .section 'data'
 160  0000              #line 160 "F:\HTMCU\MB-T006-HT66F0185\[TEST06] AD\init.h"
 160  0000              public _peking_second1
 160  004E              @HCCINIT0 .section 'data'
 160  004E              _peking_second1	db 0
 160  004F              #pragma debug variable 7 1 _peking_second1 "peking_second1"
 160  004F              
 160  0000              @HCCINIT .section 'data'
 158  0000              #line 158 "F:\HTMCU\MB-T006-HT66F0185\[TEST06] AD\init.h"
 158  0000              public _peking_second
 158  004F              @HCCINIT0 .section 'data'
 158  004F              _peking_second	db 0
 158  0050              #pragma debug variable 7 1 _peking_second "peking_second"
 158  0050              
 158  0000              @HCCINIT .section 'data'
 157  0000              #line 157 "F:\HTMCU\MB-T006-HT66F0185\[TEST06] AD\init.h"
 157  0000              public _peking_min
 157  0050              @HCCINIT0 .section 'data'
 157  0050              _peking_min	db 0
 157  0051              #pragma debug variable 7 1 _peking_min "peking_min"
文件：init.h       编译器版本 HGASM 0202 页次29

 157  0051              
 157  0000              @HCCINIT .section 'data'
 156  0000              #line 156 "F:\HTMCU\MB-T006-HT66F0185\[TEST06] AD\init.h"
 156  0000              public _peking_hour
 156  0051              @HCCINIT0 .section 'data'
 156  0051              _peking_hour	db 0
 156  0052              #pragma debug variable 7 1 _peking_hour "peking_hour"
 156  0052              
 156  0000              @HCCINIT .section 'data'
 154  0000              #line 154 "F:\HTMCU\MB-T006-HT66F0185\[TEST06] AD\init.h"
 154  0000              public _alarm_second
 154  0052              @HCCINIT0 .section 'data'
 154  0052              _alarm_second	db 0
 154  0053              #pragma debug variable 7 1 _alarm_second "alarm_second"
 154  0053              
 154  0000              @HCCINIT .section 'data'
 153  0000              #line 153 "F:\HTMCU\MB-T006-HT66F0185\[TEST06] AD\init.h"
 153  0000              public _alarm_min
 153  0053              @HCCINIT0 .section 'data'
 153  0053              _alarm_min	db 0
 153  0054              #pragma debug variable 7 1 _alarm_min "alarm_min"
 153  0054              
 153  0000              @HCCINIT .section 'data'
 152  0000              #line 152 "F:\HTMCU\MB-T006-HT66F0185\[TEST06] AD\init.h"
 152  0000              public _alarm_hour
 152  0054              @HCCINIT0 .section 'data'
 152  0054              _alarm_hour	db 0
 152  0055              #pragma debug variable 7 1 _alarm_hour "alarm_hour"
 152  0055              
 152  0000              @HCCINIT .section 'data'
  64  0000              #line 64 "F:\HTMCU\MB-T006-HT66F0185\[TEST06] AD\init.h"
  64  0000              public _uF7
  64  0055              @HCCINIT0 .section 'data'
  64  0055              _uF7	db 0
  64  0056              #pragma debug struct_end
  64  0056              #pragma debug struct_end
  64  0056              #pragma debug union_end
  64  0056              #pragma debug union_end
  64  0056              #pragma debug variable 45 1 _uF7 "uF7"
  64  0056              
  64  0000              @HCCINIT .section 'data'
  64  0000              #line 64 "F:\HTMCU\MB-T006-HT66F0185\[TEST06] AD\init.h"
  64  0000              public _uF6
  64  0056              @HCCINIT0 .section 'data'
  64  0056              _uF6	db 0
  64  0057              #pragma debug variable 45 1 _uF6 "uF6"
  64  0057              
  64  0000              @HCCINIT .section 'data'
  64  0000              #line 64 "F:\HTMCU\MB-T006-HT66F0185\[TEST06] AD\init.h"
  64  0000              public _uF5
  64  0057              @HCCINIT0 .section 'data'
  64  0057              _uF5	db 0
  64  0058              #pragma debug variable 45 1 _uF5 "uF5"
  64  0058              
  64  0000              @HCCINIT .section 'data'
  64  0000              #line 64 "F:\HTMCU\MB-T006-HT66F0185\[TEST06] AD\init.h"
  64  0000              public _uF4
  64  0058              @HCCINIT0 .section 'data'
  64  0058              _uF4	db 0
  64  0059              #pragma debug variable 45 1 _uF4 "uF4"
文件：init.h       编译器版本 HGASM 0202 页次30

  64  0059              
  64  0000              @HCCINIT .section 'data'
  64  0000              #line 64 "F:\HTMCU\MB-T006-HT66F0185\[TEST06] AD\init.h"
  64  0000              public _uF3
  64  0059              @HCCINIT0 .section 'data'
  64  0059              _uF3	db 0
  64  005A              #pragma debug variable 45 1 _uF3 "uF3"
  64  005A              
  64  0000              @HCCINIT .section 'data'
  64  0000              #line 64 "F:\HTMCU\MB-T006-HT66F0185\[TEST06] AD\init.h"
  64  0000              public _uF2
  64  005A              @HCCINIT0 .section 'data'
  64  005A              _uF2	db 0
  64  005B              #pragma debug variable 45 1 _uF2 "uF2"
  64  005B              
  64  0000              @HCCINIT .section 'data'
  64  0000              #line 64 "F:\HTMCU\MB-T006-HT66F0185\[TEST06] AD\init.h"
  64  0000              public _uF1
  64  005B              @HCCINIT0 .section 'data'
  64  005B              _uF1	db 0
  64  005C              #pragma debug variable 45 1 _uF1 "uF1"
  64  005C              
  64  0000              @HCCINIT .section 'data'
  64  0000              #pragma debug variable 8 1 ___mp1 "__mp1" 1
  64  0000              #pragma debug struct_end
  64  0000              #pragma debug struct_end
  64  0000              #pragma debug union_end
  64  0000              #pragma debug union_end
  64  0000              #pragma debug variable 47 1 ___bp "__bp" 1
  64  0000              #pragma debug struct_end
  64  0000              #pragma debug struct_end
  64  0000              #pragma debug union_end
  64  0000              #pragma debug union_end
  64  0000              #pragma debug variable 49 1 ___smod "__smod" 1
  64  0000              #pragma debug struct_end
  64  0000              #pragma debug struct_end
  64  0000              #pragma debug union_end
  64  0000              #pragma debug union_end
  64  0000              #pragma debug variable 51 1 ___integ "__integ" 1
  64  0000              #pragma debug struct_end
  64  0000              #pragma debug struct_end
  64  0000              #pragma debug union_end
  64  0000              #pragma debug union_end
  64  0000              #pragma debug variable 53 1 ___intc0 "__intc0" 1
  64  0000              #pragma debug struct_end
  64  0000              #pragma debug struct_end
  64  0000              #pragma debug union_end
  64  0000              #pragma debug union_end
  64  0000              #pragma debug variable 55 1 ___mfi0 "__mfi0" 1
  64  0000              #pragma debug struct_end
  64  0000              #pragma debug struct_end
  64  0000              #pragma debug union_end
  64  0000              #pragma debug union_end
  64  0000              #pragma debug variable 57 1 ___pa "__pa" 1
  64  0000              #pragma debug struct_end
  64  0000              #pragma debug struct_end
  64  0000              #pragma debug union_end
  64  0000              #pragma debug union_end
  64  0000              #pragma debug variable 59 1 ___pac "__pac" 1
  64  0000              #pragma debug struct_end
文件：init.h       编译器版本 HGASM 0202 页次31

  64  0000              #pragma debug struct_end
  64  0000              #pragma debug union_end
  64  0000              #pragma debug union_end
  64  0000              #pragma debug variable 61 1 ___papu "__papu" 1
  64  0000              #pragma debug struct_end
  64  0000              #pragma debug struct_end
  64  0000              #pragma debug union_end
  64  0000              #pragma debug union_end
  64  0000              #pragma debug variable 63 1 ___tmpc "__tmpc" 1
  64  0000              #pragma debug struct_end
  64  0000              #pragma debug struct_end
  64  0000              #pragma debug union_end
  64  0000              #pragma debug union_end
  64  0000              #pragma debug variable 65 1 ___wdtc "__wdtc" 1
  64  0000              #pragma debug variable 8 1 ___sadol "__sadol" 1
  64  0000              #pragma debug variable 8 1 ___sadoh "__sadoh" 1
  64  0000              #pragma debug struct_end
  64  0000              #pragma debug struct_end
  64  0000              #pragma debug union_end
  64  0000              #pragma debug union_end
  64  0000              #pragma debug variable 67 1 ___sadc0 "__sadc0" 1
  64  0000              #pragma debug struct_end
  64  0000              #pragma debug struct_end
  64  0000              #pragma debug union_end
  64  0000              #pragma debug union_end
  64  0000              #pragma debug variable 69 1 ___sadc1 "__sadc1" 1
  64  0000              #pragma debug struct_end
  64  0000              #pragma debug struct_end
  64  0000              #pragma debug union_end
  64  0000              #pragma debug union_end
  64  0000              #pragma debug variable 71 1 ___sadc2 "__sadc2" 1
  64  0000              #pragma debug struct_end
  64  0000              #pragma debug struct_end
  64  0000              #pragma debug union_end
  64  0000              #pragma debug union_end
  64  0000              #pragma debug variable 73 1 ___pb "__pb" 1
  64  0000              #pragma debug struct_end
  64  0000              #pragma debug struct_end
  64  0000              #pragma debug union_end
  64  0000              #pragma debug union_end
  64  0000              #pragma debug variable 75 1 ___pbc "__pbc" 1
  64  0000              #pragma debug struct_end
  64  0000              #pragma debug struct_end
  64  0000              #pragma debug union_end
  64  0000              #pragma debug union_end
  64  0000              #pragma debug variable 77 1 ___pbpu "__pbpu" 1
  64  0000              #pragma debug struct_end
  64  0000              #pragma debug struct_end
  64  0000              #pragma debug union_end
  64  0000              #pragma debug union_end
  64  0000              #pragma debug variable 79 1 ___tm0c0 "__tm0c0" 1
  64  0000              #pragma debug struct_end
  64  0000              #pragma debug struct_end
  64  0000              #pragma debug union_end
  64  0000              #pragma debug union_end
  64  0000              #pragma debug variable 81 1 ___tm0c1 "__tm0c1" 1
  64  0000              #pragma debug variable 8 1 ___tm0al "__tm0al" 1
  64  0000              #pragma debug variable 8 1 ___tm0ah "__tm0ah" 1
  64  0000              #pragma debug struct_end
  64  0000              #pragma debug struct_end
文件：init.h       编译器版本 HGASM 0202 页次32

  64  0000              #pragma debug union_end
  64  0000              #pragma debug union_end
  64  0000              #pragma debug variable 83 1 ___cpc "__cpc" 1
  64  0000              #pragma debug struct_end
  64  0000              #pragma debug struct_end
  64  0000              #pragma debug union_end
  64  0000              #pragma debug union_end
  64  0000              #pragma debug variable 85 1 ___pc "__pc" 1
  64  0000              #pragma debug struct_end
  64  0000              #pragma debug struct_end
  64  0000              #pragma debug union_end
  64  0000              #pragma debug union_end
  64  0000              #pragma debug variable 87 1 ___pcc "__pcc" 1
  64  0000              #pragma debug struct_end
  64  0000              #pragma debug struct_end
  64  0000              #pragma debug union_end
  64  0000              #pragma debug union_end
  64  0000              #pragma debug variable 89 1 ___pcpu "__pcpu" 1
  64  0000              #pragma debug struct_end
  64  0000              #pragma debug struct_end
  64  0000              #pragma debug union_end
  64  0000              #pragma debug union_end
  64  0000              #pragma debug variable 91 1 ___acerl "__acerl" 1
  64  0000              #pragma debug struct_end
  64  0000              #pragma debug struct_end
  64  0000              #pragma debug union_end
  64  0000              #pragma debug union_end
  64  0000              #pragma debug variable 93 1 ___slcdc0 "__slcdc0" 1
  64  0000              #pragma debug struct_end
  64  0000              #pragma debug struct_end
  64  0000              #pragma debug union_end
  64  0000              #pragma debug union_end
  64  0000              #pragma debug variable 95 1 ___slcdc1 "__slcdc1" 1
  64  0000              #pragma debug struct_end
  64  0000              #pragma debug struct_end
  64  0000              #pragma debug union_end
  64  0000              #pragma debug union_end
  64  0000              #pragma debug variable 97 1 ___slcdc2 "__slcdc2" 1
  64  0000              #pragma debug struct_end
  64  0000              #pragma debug struct_end
  64  0000              #pragma debug union_end
  64  0000              #pragma debug union_end
  64  0000              #pragma debug variable 99 1 ___slcdc3 "__slcdc3" 1
  64  0000              #pragma debug struct_end
  64  0000              #pragma debug struct_end
  64  0000              #pragma debug union_end
  64  0000              #pragma debug union_end
  64  0000              #pragma debug variable 101 1 ___slcdc4 "__slcdc4" 1
  64  0000              #pragma debug struct_end
  64  0000              #pragma debug struct_end
  64  0000              #pragma debug union_end
  64  0000              #pragma debug union_end
  64  0000              #pragma debug variable 103 1 ___pd "__pd" 1
  64  0000              #pragma debug struct_end
  64  0000              #pragma debug struct_end
  64  0000              #pragma debug union_end
  64  0000              #pragma debug union_end
  64  0000              #pragma debug variable 105 1 ___pdc "__pdc" 1
  64  0000              #pragma debug struct_end
  64  0000              #pragma debug struct_end
文件：init.h       编译器版本 HGASM 0202 页次33

  64  0000              #pragma debug union_end
  64  0000              #pragma debug union_end
  64  0000              #pragma debug variable 107 1 ___pdpu "__pdpu" 1
  64  0000              #pragma debug variable 8 1 ___iar1 "__iar1" 1
  64  0000              extern r1:byte
  64  0000              extern r2:byte

 295  0000              #line 295 "F:\HTMCU\MB-T006-HT66F0185\[TEST06] AD\3key.c"
 295  0000              @code .section at 0 'code'
 295  0000  2800     R  	jmp _main_startup1
 295  0001              
 295  0001              extern _builtin_holtek_mant1:byte
 295  0001              extern _builtin_holtek_signs:byte
 295  0001              extern _builtin_holtek_uitof:near
 295  0001              extern _builtin_holtek_mant2:byte
 295  0001              extern _builtin_holtek_ftmul:near
 295  0001              extern _builtin_holtek_ftdiv:near
 295  0001              extern _builtin_holtek_mant12p:byte
 295  0001              extern _builtin_holtek_ftol:near
 295  0001              extern _builtin_holtek_udivmodhi4_2:byte
 295  0001              extern _builtin_holtek_udivmodhi4:near
 295  0001              
 295  0001              ; 
 295  0001              ; Generated by holtek-gcc v3.17, Tue Aug 22 13:44:16 2017
 295  0001              ; Rebuild 307
 295  0001              ; end of file


        0 Errors, 0