文件：3key.c       编译器版本 HGASM 0202 页次1


   1  0000              ; Generated by holtek-gcc v3.17, Tue Aug 22 19:18:18 2017
   2  0000              ; 
   3  0000              ; Configuration:
   4  0000              ;       without long instruction
   5  0000              ;       Single ROM, Multi-RAM
   6  0000              ;       bits_per_rom_unit:16
   7  0000              ;       with mp1
   8  0000              ;       with tbhp, address(0x9)
   9  0000              ;          Use tabrd-const
  10  0000              ;       
  11  0000              ;       
  12  0000              ;       
  13  0000              ; use 'tabrdc' instead of 'tabrd'
  14  0000              ;       
  15  0000              
  16  0000              #pragma translator "holtek-gcc 4.6.4" "3.17" "build 20130711"
  17  0000              ; Rebuild 307
  18  0000              
  19  0000              ir equ [2]
  20  0000              mp equ [3]
  21  0000              sbp equ [1]
  22  0000              acc equ [5]
  23  0000              bp equ [4]
  24  0000              tblp equ [7]
  25  0000              tbhp equ [9]
  26  0000              status equ [10]
  27  0000              c equ [10].0
  28  0000              ac equ [10].1
  29  0000              z equ [10].2
  30  0000              ov equ [10].3
  31  0000              intc equ [11]
  32  0000              
  33  0000              extern ra:byte
  34  0000              extern rb:byte
  35  0000              extern rc:byte
  36  0000              extern rd:byte
  37  0000              extern re:byte
  38  0000              extern rf:byte
  39  0000              extern rg:byte
  40  0000              extern rh:byte
  41  0000              extern _Crom2Prom:near
  42  0000              extern _Crom2PromNext:near
  43  0000              
  44  0000              RAMBANK 0 @HCCINIT, @HCCINIT0
  45  0000              
  46  0000              RAMBANK 0 @BITDATASEC, @BITDATASEC1
  47  0000              @HCCINIT	.section 'data'
  48  0000              @HCCINIT0	.section 'data'
  49  0000              @BITDATASEC	 .section 'data'
  50  0000              @BITDATASEC1	 .section 'data'
  51  0000              
  52  0000              #pragma debug scope 1 1
  53  0000              	extern __DELAY3:near
  54  0000              	extern __DELAYX3:near
  55  0000              	extern __DELAYX6:near
  56  0000              	extern __DELAYY5:near
  57  0000              	extern __DELAYY3:near
  58  0000              	extern _builtin_holtek_delay_2:byte
  59  0000              ___pac equ [21]
文件：3key.ASM     编译器版本 HGASM 0202 页次2

  60  0000              ___papu equ [22]
  61  0000              ___pa equ [20]
  62  0000              public _GPIOA_INIT
  63  0000              #pragma debug scope 2 1

   6  0000              #line 6 "F:\HTMCU\MB-T006-HT66F0185\[TEST08] TEST\3key.c"
   6  0000              _GPIOA_INIT .section 'code'
   6  0000              _GPIOA_INIT proc
   6  0000              public _GPIOA_INIT_2
   6  0000  0004[           local _GPIOA_INIT_2 db 4 dup(?)	; 3,1
            00
            ]
   6  0000  0080     R  	mov _GPIOA_INIT_2[3],a
   6  0001              #pragma debug variable 8 2 _GPIOA_INIT_2+3 "GPIO_Pin"
   6  0001              #pragma debug variable 8 2 _GPIOA_INIT_2+0 "GPIO_Mode"
   6  0001              #pragma debug variable 8 2 _GPIOA_INIT_2+1 "wakeup"
   6  0001              #pragma debug variable 8 2 _GPIOA_INIT_2+2 "GPIO_BitVal"
   7  0001              #line 7 "F:\HTMCU\MB-T006-HT66F0185\[TEST08] TEST\3key.c"
   7  0001  1700     R  	sdza _GPIOA_INIT_2[0]
   7  0002  2800     R  	jmp _L2
   9  0003              #line 9 "F:\HTMCU\MB-T006-HT66F0185\[TEST08] TEST\3key.c"
   9  0003  0700     R  	mov a,_GPIOA_INIT_2[3]
   9  0004  0595        	orm a,[21]
  10  0005              #line 10 "F:\HTMCU\MB-T006-HT66F0185\[TEST08] TEST\3key.c"
  10  0005  0700     R  	mov a,_GPIOA_INIT_2[3]
  10  0006  0596        	orm a,[22]
  10  0007  2800     R  	jmp _L3
  10  0008              _L2:
  14  0008              #line 14 "F:\HTMCU\MB-T006-HT66F0185\[TEST08] TEST\3key.c"
  14  0008  0100     R  	cpla _GPIOA_INIT_2[3]
  14  0009  0080     E  	mov ra,a
  14  000A  0700     E  	mov a,ra
  14  000B  0695        	andm a,[21]
  15  000C              #line 15 "F:\HTMCU\MB-T006-HT66F0185\[TEST08] TEST\3key.c"
  15  000C  0700     E  	mov a,ra
  15  000D  0696        	andm a,[22]
  15  000E              _L3:
  18  000E              #line 18 "F:\HTMCU\MB-T006-HT66F0185\[TEST08] TEST\3key.c"
  18  000E  1080     R  	sz _GPIOA_INIT_2[2]
  18  000F  2800     R  	jmp _LI1
  18  0010  2800     R  	jmp _L4
  18  0011              _LI1:
  20  0011              #line 20 "F:\HTMCU\MB-T006-HT66F0185\[TEST08] TEST\3key.c"
  20  0011  0700     R  	mov a,_GPIOA_INIT_2[3]
  20  0012  0594        	orm a,[20]
  20  0013  2800     R  	jmp _L1
  20  0014              _L4:
  24  0014              #line 24 "F:\HTMCU\MB-T006-HT66F0185\[TEST08] TEST\3key.c"
  24  0014  0100     R  	cpla _GPIOA_INIT_2[3]
  24  0015  0080     E  	mov ra,a
  24  0016  0700     E  	mov a,ra
  24  0017  0694        	andm a,[20]
  24  0018              _L1:
  24  0018  0003        	ret
  24  0019              _GPIOA_INIT endp
  24  0019              #line 24 "F:\HTMCU\MB-T006-HT66F0185\[TEST08] TEST\3key.c"
  24  0019              #pragma debug scope 1 1
  24  0019              ___pbc equ [38]
  24  0019              ___pbpu equ [39]
  24  0019              ___pb equ [37]
文件：3key.c       编译器版本 HGASM 0202 页次3

  24  0019              public _GPIOB_INIT
  24  0019              #pragma debug scope 3 1
  30  0019              #line 30 "F:\HTMCU\MB-T006-HT66F0185\[TEST08] TEST\3key.c"
  30  0000              _GPIOB_INIT .section 'code'
  30  0000              _GPIOB_INIT proc
  30  0000              public _GPIOB_INIT_2
  30  0000  0003[           local _GPIOB_INIT_2 db 3 dup(?)	; 2,1
            00
            ]
  30  0000  0080     R  	mov _GPIOB_INIT_2[2],a
  30  0001              #pragma debug variable 8 3 _GPIOB_INIT_2+2 "GPIO_Pin"
  30  0001              #pragma debug variable 8 3 _GPIOB_INIT_2+0 "GPIO_Mode"
  30  0001              #pragma debug variable 8 3 _GPIOB_INIT_2+1 "GPIO_BitVal"
  32  0001              #line 32 "F:\HTMCU\MB-T006-HT66F0185\[TEST08] TEST\3key.c"
  32  0001  1700     R  	sdza _GPIOB_INIT_2[0]
  32  0002  2800     R  	jmp _L8
  34  0003              #line 34 "F:\HTMCU\MB-T006-HT66F0185\[TEST08] TEST\3key.c"
  34  0003  0700     R  	mov a,_GPIOB_INIT_2[2]
  34  0004  05A6        	orm a,[38]
  35  0005              #line 35 "F:\HTMCU\MB-T006-HT66F0185\[TEST08] TEST\3key.c"
  35  0005  0700     R  	mov a,_GPIOB_INIT_2[2]
  35  0006  05A7        	orm a,[39]
  35  0007  2800     R  	jmp _L9
  35  0008              _L8:
  39  0008              #line 39 "F:\HTMCU\MB-T006-HT66F0185\[TEST08] TEST\3key.c"
  39  0008  0100     R  	cpla _GPIOB_INIT_2[2]
  39  0009  0080     E  	mov ra,a
  39  000A  0700     E  	mov a,ra
  39  000B  06A6        	andm a,[38]
  40  000C              #line 40 "F:\HTMCU\MB-T006-HT66F0185\[TEST08] TEST\3key.c"
  40  000C  0700     E  	mov a,ra
  40  000D  06A7        	andm a,[39]
  40  000E              _L9:
  43  000E              #line 43 "F:\HTMCU\MB-T006-HT66F0185\[TEST08] TEST\3key.c"
  43  000E  1080     R  	sz _GPIOB_INIT_2[1]
  43  000F  2800     R  	jmp _LI2
  43  0010  2800     R  	jmp _L10
  43  0011              _LI2:
  45  0011              #line 45 "F:\HTMCU\MB-T006-HT66F0185\[TEST08] TEST\3key.c"
  45  0011  0700     R  	mov a,_GPIOB_INIT_2[2]
  45  0012  05A5        	orm a,[37]
  45  0013  2800     R  	jmp _L7
  45  0014              _L10:
  49  0014              #line 49 "F:\HTMCU\MB-T006-HT66F0185\[TEST08] TEST\3key.c"
  49  0014  0100     R  	cpla _GPIOB_INIT_2[2]
  49  0015  0080     E  	mov ra,a
  49  0016  0700     E  	mov a,ra
  49  0017  06A5        	andm a,[37]
  49  0018              _L7:
  49  0018  0003        	ret
  49  0019              _GPIOB_INIT endp
  49  0019              #line 49 "F:\HTMCU\MB-T006-HT66F0185\[TEST08] TEST\3key.c"
  49  0019              #pragma debug scope 1 1
  49  0019              ___pcc equ [66]
  49  0019              ___pcpu equ [67]
  49  0019              ___pc equ [65]
  49  0019              public _GPIOC_INIT
  49  0019              #pragma debug scope 4 1
  54  0019              #line 54 "F:\HTMCU\MB-T006-HT66F0185\[TEST08] TEST\3key.c"
  54  0000              _GPIOC_INIT .section 'code'
文件：3key.c       编译器版本 HGASM 0202 页次4

  54  0000              _GPIOC_INIT proc
  54  0000              public _GPIOC_INIT_2
  54  0000  0003[           local _GPIOC_INIT_2 db 3 dup(?)	; 2,1
            00
            ]
  54  0000  0080     R  	mov _GPIOC_INIT_2[2],a
  54  0001              #pragma debug variable 8 4 _GPIOC_INIT_2+2 "GPIO_Pin"
  54  0001              #pragma debug variable 8 4 _GPIOC_INIT_2+0 "GPIO_Mode"
  54  0001              #pragma debug variable 8 4 _GPIOC_INIT_2+1 "GPIO_BitVal"
  56  0001              #line 56 "F:\HTMCU\MB-T006-HT66F0185\[TEST08] TEST\3key.c"
  56  0001  1700     R  	sdza _GPIOC_INIT_2[0]
  56  0002  2800     R  	jmp _L13
  58  0003              #line 58 "F:\HTMCU\MB-T006-HT66F0185\[TEST08] TEST\3key.c"
  58  0003  0700     R  	mov a,_GPIOC_INIT_2[2]
  58  0004  05C2        	orm a,[66]
  59  0005              #line 59 "F:\HTMCU\MB-T006-HT66F0185\[TEST08] TEST\3key.c"
  59  0005  0700     R  	mov a,_GPIOC_INIT_2[2]
  59  0006  05C3        	orm a,[67]
  59  0007  2800     R  	jmp _L14
  59  0008              _L13:
  63  0008              #line 63 "F:\HTMCU\MB-T006-HT66F0185\[TEST08] TEST\3key.c"
  63  0008  0100     R  	cpla _GPIOC_INIT_2[2]
  63  0009  0080     E  	mov ra,a
  63  000A  0700     E  	mov a,ra
  63  000B  06C2        	andm a,[66]
  64  000C              #line 64 "F:\HTMCU\MB-T006-HT66F0185\[TEST08] TEST\3key.c"
  64  000C  0700     E  	mov a,ra
  64  000D  06C3        	andm a,[67]
  64  000E              _L14:
  67  000E              #line 67 "F:\HTMCU\MB-T006-HT66F0185\[TEST08] TEST\3key.c"
  67  000E  1080     R  	sz _GPIOC_INIT_2[1]
  67  000F  2800     R  	jmp _LI3
  67  0010  2800     R  	jmp _L15
  67  0011              _LI3:
  69  0011              #line 69 "F:\HTMCU\MB-T006-HT66F0185\[TEST08] TEST\3key.c"
  69  0011  0700     R  	mov a,_GPIOC_INIT_2[2]
  69  0012  05C1        	orm a,[65]
  69  0013  2800     R  	jmp _L12
  69  0014              _L15:
  73  0014              #line 73 "F:\HTMCU\MB-T006-HT66F0185\[TEST08] TEST\3key.c"
  73  0014  0100     R  	cpla _GPIOC_INIT_2[2]
  73  0015  0080     E  	mov ra,a
  73  0016  0700     E  	mov a,ra
  73  0017  06C1        	andm a,[65]
  73  0018              _L12:
  73  0018  0003        	ret
  73  0019              _GPIOC_INIT endp
  73  0019              #line 73 "F:\HTMCU\MB-T006-HT66F0185\[TEST08] TEST\3key.c"
  73  0019              #pragma debug scope 1 1
  73  0019              ___pdc equ [83]
  73  0019              ___pdpu equ [84]
  73  0019              ___pd equ [82]
  73  0019              public _GPIOD_INIT
  73  0019              #pragma debug scope 5 1
  79  0019              #line 79 "F:\HTMCU\MB-T006-HT66F0185\[TEST08] TEST\3key.c"
  79  0000              _GPIOD_INIT .section 'code'
  79  0000              _GPIOD_INIT proc
  79  0000              public _GPIOD_INIT_2
  79  0000  0003[           local _GPIOD_INIT_2 db 3 dup(?)	; 2,1
            00
文件：3key.c       编译器版本 HGASM 0202 页次5

            ]
  79  0000  0080     R  	mov _GPIOD_INIT_2[2],a
  79  0001              #pragma debug variable 8 5 _GPIOD_INIT_2+2 "GPIO_Pin"
  79  0001              #pragma debug variable 8 5 _GPIOD_INIT_2+0 "GPIO_Mode"
  79  0001              #pragma debug variable 8 5 _GPIOD_INIT_2+1 "GPIO_BitVal"
  81  0001              #line 81 "F:\HTMCU\MB-T006-HT66F0185\[TEST08] TEST\3key.c"
  81  0001  1700     R  	sdza _GPIOD_INIT_2[0]
  81  0002  2800     R  	jmp _L18
  83  0003              #line 83 "F:\HTMCU\MB-T006-HT66F0185\[TEST08] TEST\3key.c"
  83  0003  0700     R  	mov a,_GPIOD_INIT_2[2]
  83  0004  05D3        	orm a,[83]
  84  0005              #line 84 "F:\HTMCU\MB-T006-HT66F0185\[TEST08] TEST\3key.c"
  84  0005  0700     R  	mov a,_GPIOD_INIT_2[2]
  84  0006  05D4        	orm a,[84]
  84  0007  2800     R  	jmp _L19
  84  0008              _L18:
  88  0008              #line 88 "F:\HTMCU\MB-T006-HT66F0185\[TEST08] TEST\3key.c"
  88  0008  0100     R  	cpla _GPIOD_INIT_2[2]
  88  0009  0080     E  	mov ra,a
  88  000A  0700     E  	mov a,ra
  88  000B  06D3        	andm a,[83]
  89  000C              #line 89 "F:\HTMCU\MB-T006-HT66F0185\[TEST08] TEST\3key.c"
  89  000C  0700     E  	mov a,ra
  89  000D  06D4        	andm a,[84]
  89  000E              _L19:
  92  000E              #line 92 "F:\HTMCU\MB-T006-HT66F0185\[TEST08] TEST\3key.c"
  92  000E  1080     R  	sz _GPIOD_INIT_2[1]
  92  000F  2800     R  	jmp _LI4
  92  0010  2800     R  	jmp _L20
  92  0011              _LI4:
  94  0011              #line 94 "F:\HTMCU\MB-T006-HT66F0185\[TEST08] TEST\3key.c"
  94  0011  0700     R  	mov a,_GPIOD_INIT_2[2]
  94  0012  05D2        	orm a,[82]
  94  0013  2800     R  	jmp _L17
  94  0014              _L20:
  98  0014              #line 98 "F:\HTMCU\MB-T006-HT66F0185\[TEST08] TEST\3key.c"
  98  0014  0100     R  	cpla _GPIOD_INIT_2[2]
  98  0015  0080     E  	mov ra,a
  98  0016  0700     E  	mov a,ra
  98  0017  06D2        	andm a,[82]
  98  0018              _L17:
  98  0018  0003        	ret
  98  0019              _GPIOD_INIT endp
  98  0019              #line 98 "F:\HTMCU\MB-T006-HT66F0185\[TEST08] TEST\3key.c"
  98  0019              #pragma debug scope 1 1
  98  0019              ___bp equ [4]
  98  0019              ___mp1 equ [3]
  98  0019              ___iar1 equ [2]
  98  0019              public _clr_ram_en
  98  0019              #pragma debug scope 6 1
 104  0019              #line 104 "F:\HTMCU\MB-T006-HT66F0185\[TEST08] TEST\3key.c"
 104  0000              _clr_ram_en .section 'code'
 104  0000              _clr_ram_en proc
 104  0000  00              local _clr_ram_en_2 db 1 dup(?)	; 0,1
 104  0000  0080     E  	mov ra,a
 104  0001  0080     R  	mov _clr_ram_en_2[0],a
 104  0002              #pragma debug variable 8 6 _clr_ram_en_2+0 "t"
 105  0002              #line 105 "F:\HTMCU\MB-T006-HT66F0185\[TEST08] TEST\3key.c"
 105  0002  0F01        	mov a,1
 105  0003  0680     E  	andm a,ra
文件：3key.c       编译器版本 HGASM 0202 页次6

 105  0004  3404        	clr [4].0
 105  0005  0700     E  	mov a,ra
 105  0006  0584        	orm a,[4]
 106  0007              #line 106 "F:\HTMCU\MB-T006-HT66F0185\[TEST08] TEST\3key.c"
 106  0007  0F80        	mov a,128
 106  0008  0083        	mov [3],a
 107  0009              #line 107 "F:\HTMCU\MB-T006-HT66F0185\[TEST08] TEST\3key.c"
 107  0009  2800     R  	jmp _L23
 107  000A              _L24:
 109  000A              #line 109 "F:\HTMCU\MB-T006-HT66F0185\[TEST08] TEST\3key.c"
 109  000A  1F02        	clr [2]
 110  000B              #line 110 "F:\HTMCU\MB-T006-HT66F0185\[TEST08] TEST\3key.c"
 110  000B  1483        	inc [3]
 110  000C              _L23:
 107  000C              #line 107 "F:\HTMCU\MB-T006-HT66F0185\[TEST08] TEST\3key.c"
 107  000C  1083        	sz [3]
 107  000D  2800     R  	jmp _L24
 107  000E  0003        	ret
 107  000F              _clr_ram_en endp
 107  000F              #line 107 "F:\HTMCU\MB-T006-HT66F0185\[TEST08] TEST\3key.c"
 107  000F              #pragma debug scope 1 1
 107  000F              ___smod equ [11]
 107  000F              ___wdtc equ [26]
 107  000F              ___acerl equ [68]
 107  000F              ___tmpc equ [25]
 107  000F              ___cpc equ [63]
 107  000F              ___integ equ [13]
 107  000F              ___intc0 equ [14]
 107  000F              ___slcdc0 equ [74]
 107  000F              ___slcdc1 equ [75]
 107  000F              ___slcdc2 equ [76]
 107  000F              ___slcdc3 equ [77]
 107  000F              ___slcdc4 equ [78]
 107  000F              ___tm0c0 equ [47]
 107  000F              ___tm0c1 equ [48]
 107  000F              ___tm0al equ [51]
 107  000F              ___tm0ah equ [52]
 107  000F              ___mfi0 equ [17]
 107  000F              ___tbc equ [27]
 107  000F              ___intc1 equ [15]
 107  000F              public _Init_clock
 107  000F              #pragma debug scope 7 1
 115  000F              #line 115 "F:\HTMCU\MB-T006-HT66F0185\[TEST08] TEST\3key.c"
 115  0000              _Init_clock .section 'code'
 115  0000              _Init_clock proc
 116  0000              #line 116 "F:\HTMCU\MB-T006-HT66F0185\[TEST08] TEST\3key.c"
 116  0000  0F01        	mov a,1
 116  0001  008B        	mov [11],a
 116  0002              _L27:
 117  0002              #line 117 "F:\HTMCU\MB-T006-HT66F0185\[TEST08] TEST\3key.c"
 117  0002  390B        	snz [11].2
 117  0003  2800     R  	jmp _L27
 118  0004              #line 118 "F:\HTMCU\MB-T006-HT66F0185\[TEST08] TEST\3key.c"
 118  0004  0F57        	mov a,87
 118  0005  009A        	mov [26],a
 119  0006              #line 119 "F:\HTMCU\MB-T006-HT66F0185\[TEST08] TEST\3key.c"
 119  0006  1F44        	clr [68]
 120  0007              #line 120 "F:\HTMCU\MB-T006-HT66F0185\[TEST08] TEST\3key.c"
 120  0007  1F19        	clr [25]
 121  0008              #line 121 "F:\HTMCU\MB-T006-HT66F0185\[TEST08] TEST\3key.c"
文件：3key.c       编译器版本 HGASM 0202 页次7

 121  0008  0F08        	mov a,8
 121  0009  00BF        	mov [63],a
 122  000A              #line 122 "F:\HTMCU\MB-T006-HT66F0185\[TEST08] TEST\3key.c"
 122  000A  1F0D        	clr [13]
 123  000B              #line 123 "F:\HTMCU\MB-T006-HT66F0185\[TEST08] TEST\3key.c"
 123  000B  348E        	clr [14].1
 124  000C              #line 124 "F:\HTMCU\MB-T006-HT66F0185\[TEST08] TEST\3key.c"
 124  000C  340E        	clr [14].0
 127  000D              #line 127 "F:\HTMCU\MB-T006-HT66F0185\[TEST08] TEST\3key.c"
 127  000D  1F4A        	clr [74]
 128  000E              #line 128 "F:\HTMCU\MB-T006-HT66F0185\[TEST08] TEST\3key.c"
 128  000E  1F4B        	clr [75]
 129  000F              #line 129 "F:\HTMCU\MB-T006-HT66F0185\[TEST08] TEST\3key.c"
 129  000F  1F4C        	clr [76]
 130  0010              #line 130 "F:\HTMCU\MB-T006-HT66F0185\[TEST08] TEST\3key.c"
 130  0010  1F4D        	clr [77]
 131  0011              #line 131 "F:\HTMCU\MB-T006-HT66F0185\[TEST08] TEST\3key.c"
 131  0011  1F4E        	clr [78]
 133  0012              #line 133 "F:\HTMCU\MB-T006-HT66F0185\[TEST08] TEST\3key.c"
 133  0012  0F10        	mov a,16
 133  0013  00AF        	mov [47],a
 134  0014              #line 134 "F:\HTMCU\MB-T006-HT66F0185\[TEST08] TEST\3key.c"
 134  0014  0FC1        	mov a,193
 134  0015  00B0        	mov [48],a
 135  0016              #line 135 "F:\HTMCU\MB-T006-HT66F0185\[TEST08] TEST\3key.c"
 135  0016  0FF8        	mov a,248
 135  0017  00B3        	mov [51],a
 136  0018              #line 136 "F:\HTMCU\MB-T006-HT66F0185\[TEST08] TEST\3key.c"
 136  0018  0F05        	mov a,5
 136  0019  00B4        	mov [52],a
 137  001A              #line 137 "F:\HTMCU\MB-T006-HT66F0185\[TEST08] TEST\3key.c"
 137  001A  3691        	clr [17].5
 138  001B              #line 138 "F:\HTMCU\MB-T006-HT66F0185\[TEST08] TEST\3key.c"
 138  001B  31AF        	set [47].3
 139  001C              #line 139 "F:\HTMCU\MB-T006-HT66F0185\[TEST08] TEST\3key.c"
 139  001C  318E        	set [14].3
 140  001D              #line 140 "F:\HTMCU\MB-T006-HT66F0185\[TEST08] TEST\3key.c"
 140  001D  3091        	set [17].1
 142  001E              #line 142 "F:\HTMCU\MB-T006-HT66F0185\[TEST08] TEST\3key.c"
 142  001E  0F87        	mov a,135
 142  001F  009B        	mov [27],a
 143  0020              #line 143 "F:\HTMCU\MB-T006-HT66F0185\[TEST08] TEST\3key.c"
 143  0020  378F        	clr [15].7
 144  0021              #line 144 "F:\HTMCU\MB-T006-HT66F0185\[TEST08] TEST\3key.c"
 144  0021  318F        	set [15].3
 146  0022              #line 146 "F:\HTMCU\MB-T006-HT66F0185\[TEST08] TEST\3key.c"
 146  0022  300E        	set [14].0
 148  0023              #line 148 "F:\HTMCU\MB-T006-HT66F0185\[TEST08] TEST\3key.c"
 148  0023              ;# 148 "F:\HTMCU\MB-T006-HT66F0185\[TEST08] TEST\3key.c" 1
 148  0023  0001        	clr wdt
 149  0024              #line 149 "F:\HTMCU\MB-T006-HT66F0185\[TEST08] TEST\3key.c"
 149  0024  0F00        	mov a,0
 149  0025  2000     R  	call _clr_ram_en
 150  0026              #line 150 "F:\HTMCU\MB-T006-HT66F0185\[TEST08] TEST\3key.c"
 150  0026  0F01        	mov a,1
 150  0027  2000     R  	call _clr_ram_en
 150  0028  0003        	ret
 150  0029              _Init_clock endp
 150  0029              #line 150 "F:\HTMCU\MB-T006-HT66F0185\[TEST08] TEST\3key.c"
 150  0029              #pragma debug scope 1 1
文件：3key.c       编译器版本 HGASM 0202 页次8

 150  0029              public _isr_TBS0
 150  0029              #pragma debug scope 8 1
 156  0029              #line 156 "F:\HTMCU\MB-T006-HT66F0185\[TEST08] TEST\3key.c"
 156  0000              @isr_TBS0_code .section at 28 'code'
 156  0000  0080     E  	mov r1,a
 156  0001  070A        	mov a,status
 156  0002  0080     E  	mov r2,a
 156  0003  2800     R  	jmp _isr_TBS0
 156  0004              #pragma debug scope 1 1
 156  0004              @dummy28 endp
 156  0004              #pragma debug scope 9 1
 156  0000              _isr_TBS0 .section 'code'
 156  0000              _isr_TBS0 proc
 156  0000  00          local _isr_TBS0_2 db 1 dup(?)
 157  0001              #line 157 "F:\HTMCU\MB-T006-HT66F0185\[TEST08] TEST\3key.c"
 157  0000  378F        	clr [15].7
 158  0001              #line 158 "F:\HTMCU\MB-T006-HT66F0185\[TEST08] TEST\3key.c"
 158  0001  1480     R  	inc _t10s[0]
 159  0002              #line 159 "F:\HTMCU\MB-T006-HT66F0185\[TEST08] TEST\3key.c"
 159  0002  0700     R  	mov a,_uF3[0]
 159  0003  0080     R  	mov _isr_TBS0_2[0],a
 159  0004  3800     R  	snz _isr_TBS0_2[0].6
 159  0005  2800     R  	jmp _L29
 161  0006              #line 161 "F:\HTMCU\MB-T006-HT66F0185\[TEST08] TEST\3key.c"
 161  0006  1480     R  	inc _peking_second[0]
 161  0007              _L29:
 163  0007              #line 163 "F:\HTMCU\MB-T006-HT66F0185\[TEST08] TEST\3key.c"
 163  0007  3800     R  	snz _isr_TBS0_2[0].5
 163  0008  2800     R  	jmp _L30
 165  0009              #line 165 "F:\HTMCU\MB-T006-HT66F0185\[TEST08] TEST\3key.c"
 165  0009  1580     R  	dec _alarm_second[0]
 165  000A              _L30:
 168  000A              #line 168 "F:\HTMCU\MB-T006-HT66F0185\[TEST08] TEST\3key.c"
 168  000A  0700     R  	mov a,_uF2[0]
 168  000B  0080     E  	mov ra,a
 168  000C  3800     E  	snz ra.7
 168  000D  2800     R  	jmp _L31
 170  000E              #line 170 "F:\HTMCU\MB-T006-HT66F0185\[TEST08] TEST\3key.c"
 170  000E  1480     R  	inc _bj_second[0]
 170  000F  2800     R  	jmp _L32
 170  0010              _L31:
 174  0010              #line 174 "F:\HTMCU\MB-T006-HT66F0185\[TEST08] TEST\3key.c"
 174  0010  1F00     R  	clr _bj_second[0]
 175  0011              #line 175 "F:\HTMCU\MB-T006-HT66F0185\[TEST08] TEST\3key.c"
 175  0011  1F00     R  	clr _bj_min[0]
 175  0012              _L32:
 178  0012              #line 178 "F:\HTMCU\MB-T006-HT66F0185\[TEST08] TEST\3key.c"
 178  0012  0700     E  	mov a,ra
 178  0013  0E14        	and a,20
 178  0014  0080     E  	mov rb,a
 178  0015  1080     E  	sz rb
 178  0016  2800     R  	jmp _LI5
 178  0017  2800     R  	jmp _L33
 178  0018              _LI5:
 180  0018              #line 180 "F:\HTMCU\MB-T006-HT66F0185\[TEST08] TEST\3key.c"
 180  0018  3C00     E  	sz ra.6
 180  0019  2800     R  	jmp _L28
 182  001A              #line 182 "F:\HTMCU\MB-T006-HT66F0185\[TEST08] TEST\3key.c"
 182  001A  1480     R  	inc _t2s[0]
 183  001B              #line 183 "F:\HTMCU\MB-T006-HT66F0185\[TEST08] TEST\3key.c"
文件：3key.c       编译器版本 HGASM 0202 页次9

 183  001B  0F01        	mov a,1
 183  001C  0200     R  	sub a,_t2s[0]
 183  001D  3C0A        	sz c
 183  001E  2800     R  	jmp _L28
 185  001F              #line 185 "F:\HTMCU\MB-T006-HT66F0185\[TEST08] TEST\3key.c"
 185  001F  1F00     R  	clr _t2s[0]
 186  0020              #line 186 "F:\HTMCU\MB-T006-HT66F0185\[TEST08] TEST\3key.c"
 186  0020  3000     R  	set _uF2[0].6
 186  0021  2800     R  	jmp _L28
 186  0022              _L33:
 192  0022              #line 192 "F:\HTMCU\MB-T006-HT66F0185\[TEST08] TEST\3key.c"
 192  0022  1F00     R  	clr _t2s[0]
 192  0023              _L28:
 192  0023  0700     E  	mov a,r2
 192  0024  008A        	mov status,a
 192  0025  0700     E  	mov a,r1
 192  0026  0004        	reti
 192  0027              _isr_TBS0 endp
 192  0027              
 192  0027              #line 192 "F:\HTMCU\MB-T006-HT66F0185\[TEST08] TEST\3key.c"
 192  0027              #pragma debug scope 1 1
 192  0027              public _isr_TM0
 192  0027              #pragma debug scope 10 1
 199  0027              #line 199 "F:\HTMCU\MB-T006-HT66F0185\[TEST08] TEST\3key.c"
 199  0000              @isr_TM0_code .section at 12 'code'
 199  0000  0080     E  	mov r1,a
 199  0001  070A        	mov a,status
 199  0002  0080     E  	mov r2,a
 199  0003  2800     R  	jmp _isr_TM0
 199  0004              #pragma debug scope 1 1
 199  0004              @dummy12 endp
 199  0004              #pragma debug scope 11 1
 199  0000              _isr_TM0 .section 'code'
 199  0000              _isr_TM0 proc
 199  0000  00          local _isr_TM0_2 db 1 dup(?)
 200  0001              #line 200 "F:\HTMCU\MB-T006-HT66F0185\[TEST08] TEST\3key.c"
 200  0000  3691        	clr [17].5
 201  0001              #line 201 "F:\HTMCU\MB-T006-HT66F0185\[TEST08] TEST\3key.c"
 201  0001  300E        	set [14].0
 202  0002              #line 202 "F:\HTMCU\MB-T006-HT66F0185\[TEST08] TEST\3key.c"
 202  0002  1480     R  	inc _step[0]
 203  0003              #line 203 "F:\HTMCU\MB-T006-HT66F0185\[TEST08] TEST\3key.c"
 203  0003  1480     R  	inc _step2[0]
 204  0004              #line 204 "F:\HTMCU\MB-T006-HT66F0185\[TEST08] TEST\3key.c"
 204  0004  1480     R  	inc _step3[0]
 205  0005              #line 205 "F:\HTMCU\MB-T006-HT66F0185\[TEST08] TEST\3key.c"
 205  0005  1480     R  	inc _sum[0]
 205  0006  3D0A        	sz z
 205  0007  1480     R  	inc _sum[1]
 206  0008              #line 206 "F:\HTMCU\MB-T006-HT66F0185\[TEST08] TEST\3key.c"
 206  0008  1480     R  	inc _sum1[0]
 206  0009  3D0A        	sz z
 206  000A  1480     R  	inc _sum1[1]
 207  000B              #line 207 "F:\HTMCU\MB-T006-HT66F0185\[TEST08] TEST\3key.c"
 207  000B  3800     R  	snz _uF1[0].7
 207  000C  2800     R  	jmp _L45
 209  000D              #line 209 "F:\HTMCU\MB-T006-HT66F0185\[TEST08] TEST\3key.c"
 209  000D  1480     R  	inc _tms[0]
 209  000E  3D0A        	sz z
 209  000F  1480     R  	inc _tms[1]
文件：3key.c       编译器版本 HGASM 0202 页次10

 210  0010              #line 210 "F:\HTMCU\MB-T006-HT66F0185\[TEST08] TEST\3key.c"
 210  0010  0F73        	mov a,115
 210  0011  0200     R  	sub a,_tms[0]
 210  0012  0F14        	mov a,20
 210  0013  1200     R  	sbc a,_tms[1]
 210  0014  3C0A        	sz c
 210  0015  2800     R  	jmp _L45
 212  0016              #line 212 "F:\HTMCU\MB-T006-HT66F0185\[TEST08] TEST\3key.c"
 212  0016  1F00     R  	clr _tms[0]
 212  0017  1F00     R  	clr _tms[1]
 213  0018              #line 213 "F:\HTMCU\MB-T006-HT66F0185\[TEST08] TEST\3key.c"
 213  0018  1480     R  	inc _peking_second1[0]
 213  0019              _L45:
 216  0019              #line 216 "F:\HTMCU\MB-T006-HT66F0185\[TEST08] TEST\3key.c"
 216  0019  3800     R  	snz _uF3[0].0
 216  001A  2800     R  	jmp _L47
 218  001B              #line 218 "F:\HTMCU\MB-T006-HT66F0185\[TEST08] TEST\3key.c"
 218  001B  1814        	rla [20]
 218  001C  0E01        	and a,1
 218  001D  0080     E  	mov ra,a
 218  001E  0F01        	mov a,1
 218  001F  0480     E  	xorm a,ra
 218  0020  1B80     E  	rrc ra
 218  0021  1F00     E  	clr ra
 218  0022  1B80     E  	rrc ra
 218  0023  3794        	clr [20].7
 218  0024  0700     E  	mov a,ra
 218  0025  0594        	orm a,[20]
 218  0026              _L47:
 221  0026              #line 221 "F:\HTMCU\MB-T006-HT66F0185\[TEST08] TEST\3key.c"
 221  0026  0F33        	mov a,51
 221  0027  0200     R  	sub a,_step[0]
 221  0028  3C0A        	sz c
 221  0029  2800     R  	jmp _L48
 223  002A              #line 223 "F:\HTMCU\MB-T006-HT66F0185\[TEST08] TEST\3key.c"
 223  002A  1F00     R  	clr _step[0]
 224  002B              #line 224 "F:\HTMCU\MB-T006-HT66F0185\[TEST08] TEST\3key.c"
 224  002B  3000     R  	set _uF1[0].0
 224  002C              _L48:
 228  002C              #line 228 "F:\HTMCU\MB-T006-HT66F0185\[TEST08] TEST\3key.c"
 228  002C  0F68        	mov a,104
 228  002D  0200     R  	sub a,_step2[0]
 228  002E  3C0A        	sz c
 228  002F  2800     R  	jmp _L49
 230  0030              #line 230 "F:\HTMCU\MB-T006-HT66F0185\[TEST08] TEST\3key.c"
 230  0030  1F00     R  	clr _step2[0]
 231  0031              #line 231 "F:\HTMCU\MB-T006-HT66F0185\[TEST08] TEST\3key.c"
 231  0031  3000     R  	set _uF1[0].1
 231  0032              _L49:
 234  0032              #line 234 "F:\HTMCU\MB-T006-HT66F0185\[TEST08] TEST\3key.c"
 234  0032  3800     R  	snz _uF2[0].6
 234  0033  2800     R  	jmp _L50
 236  0034              #line 236 "F:\HTMCU\MB-T006-HT66F0185\[TEST08] TEST\3key.c"
 236  0034  0F0A        	mov a,10
 236  0035  0200     R  	sub a,_sum[0]
 236  0036  0F02        	mov a,2
 236  0037  1200     R  	sbc a,_sum[1]
 236  0038  3C0A        	sz c
 236  0039  2800     R  	jmp _L51
 238  003A              #line 238 "F:\HTMCU\MB-T006-HT66F0185\[TEST08] TEST\3key.c"
文件：3key.c       编译器版本 HGASM 0202 页次11

 238  003A  1F00     R  	clr _sum[0]
 238  003B  1F00     R  	clr _sum[1]
 239  003C              #line 239 "F:\HTMCU\MB-T006-HT66F0185\[TEST08] TEST\3key.c"
 239  003C  3000     R  	set _uF1[0].2
 239  003D  2800     R  	jmp _L51
 239  003E              _L50:
 244  003E              #line 244 "F:\HTMCU\MB-T006-HT66F0185\[TEST08] TEST\3key.c"
 244  003E  3400     R  	clr _uF1[0].2
 244  003F              _L51:
 247  003F              #line 247 "F:\HTMCU\MB-T006-HT66F0185\[TEST08] TEST\3key.c"
 247  003F  0F39        	mov a,57
 247  0040  0200     R  	sub a,_sum1[0]
 247  0041  0F0A        	mov a,10
 247  0042  1200     R  	sbc a,_sum1[1]
 247  0043  3C0A        	sz c
 247  0044  2800     R  	jmp _L52
 249  0045              #line 249 "F:\HTMCU\MB-T006-HT66F0185\[TEST08] TEST\3key.c"
 249  0045  3000     R  	set _uF1[0].3
 249  0046              _L52:
 251  0046              #line 251 "F:\HTMCU\MB-T006-HT66F0185\[TEST08] TEST\3key.c"
 251  0046  0F73        	mov a,115
 251  0047  0200     R  	sub a,_sum1[0]
 251  0048  0F14        	mov a,20
 251  0049  1200     R  	sbc a,_sum1[1]
 251  004A  3C0A        	sz c
 251  004B  2800     R  	jmp _L53
 253  004C              #line 253 "F:\HTMCU\MB-T006-HT66F0185\[TEST08] TEST\3key.c"
 253  004C  1F00     R  	clr _sum1[0]
 253  004D  1F00     R  	clr _sum1[1]
 254  004E              #line 254 "F:\HTMCU\MB-T006-HT66F0185\[TEST08] TEST\3key.c"
 254  004E  3400     R  	clr _uF1[0].3
 254  004F              _L53:
 257  004F              #line 257 "F:\HTMCU\MB-T006-HT66F0185\[TEST08] TEST\3key.c"
 257  004F  0F05        	mov a,5
 257  0050  0200     R  	sub a,_step3[0]
 257  0051  3C0A        	sz c
 257  0052  2800     R  	jmp _L43
 259  0053              #line 259 "F:\HTMCU\MB-T006-HT66F0185\[TEST08] TEST\3key.c"
 259  0053  1F00     R  	clr _step3[0]
 260  0054              #line 260 "F:\HTMCU\MB-T006-HT66F0185\[TEST08] TEST\3key.c"
 260  0054  3052        	set [82].0
 261  0055              #line 261 "F:\HTMCU\MB-T006-HT66F0185\[TEST08] TEST\3key.c"
 261  0055  30D2        	set [82].1
 262  0056              #line 262 "F:\HTMCU\MB-T006-HT66F0185\[TEST08] TEST\3key.c"
 262  0056  3152        	set [82].2
 263  0057              #line 263 "F:\HTMCU\MB-T006-HT66F0185\[TEST08] TEST\3key.c"
 263  0057  31D2        	set [82].3
 264  0058              #line 264 "F:\HTMCU\MB-T006-HT66F0185\[TEST08] TEST\3key.c"
 264  0058  3041        	set [65].0
 265  0059              #line 265 "F:\HTMCU\MB-T006-HT66F0185\[TEST08] TEST\3key.c"
 265  0059  30C1        	set [65].1
 266  005A              #line 266 "F:\HTMCU\MB-T006-HT66F0185\[TEST08] TEST\3key.c"
 266  005A  3141        	set [65].2
 267  005B              #line 267 "F:\HTMCU\MB-T006-HT66F0185\[TEST08] TEST\3key.c"
 267  005B  31C1        	set [65].3
 268  005C              #line 268 "F:\HTMCU\MB-T006-HT66F0185\[TEST08] TEST\3key.c"
 268  005C  3241        	set [65].4
 269  005D              #line 269 "F:\HTMCU\MB-T006-HT66F0185\[TEST08] TEST\3key.c"
 269  005D  32C1        	set [65].5
 270  005E              #line 270 "F:\HTMCU\MB-T006-HT66F0185\[TEST08] TEST\3key.c"
文件：3key.c       编译器版本 HGASM 0202 页次12

 270  005E  3341        	set [65].6
 271  005F              #line 271 "F:\HTMCU\MB-T006-HT66F0185\[TEST08] TEST\3key.c"
 271  005F  1480     R  	inc _wei[0]
 272  0060              #line 272 "F:\HTMCU\MB-T006-HT66F0185\[TEST08] TEST\3key.c"
 272  0060  0700     R  	mov a,_wei[0]
 272  0061  0080     R  	mov _isr_TM0_2[0],a
 272  0062  0700     R  	mov a,_isr_TM0_2[0]
 272  0063  0A01        	sub a,1
 272  0064  3D0A        	sz z
 272  0065  2800     R  	jmp _L55
 272  0066  0A01        	sub a,(2)-(1)
 272  0067  3D0A        	sz z
 272  0068  2800     R  	jmp _L56
 272  0069  0700     R  	mov a,_isr_TM0_2[0]
 272  006A  0A03        	sub a,3
 272  006B  3D0A        	sz z
 272  006C  2800     R  	jmp _L57
 272  006D  0A01        	sub a,(4)-(3)
 272  006E  3D0A        	sz z
 272  006F  2800     R  	jmp _L58
 272  0070  0700     R  	mov a,_isr_TM0_2[0]
 272  0071  0A05        	sub a,5
 272  0072  3D0A        	sz z
 272  0073  2800     R  	jmp _L59
 272  0074  0A01        	sub a,(6)-(5)
 272  0075  3D0A        	sz z
 272  0076  2800     R  	jmp _L60
 272  0077  0700     R  	mov a,_isr_TM0_2[0]
 272  0078  0A07        	sub a,7
 272  0079  390A        	snz z
 272  007A  2800     R  	jmp _L43
 272  007B  2800     R  	jmp _L177
 272  007C              _L55:
 276  007C              #line 276 "F:\HTMCU\MB-T006-HT66F0185\[TEST08] TEST\3key.c"
 276  007C  3800     R  	snz _uF4[0].0
 276  007D  2800     R  	jmp _L62
 276  007E  3452        	clr [82].0
 276  007F              _L62:
 277  007F              #line 277 "F:\HTMCU\MB-T006-HT66F0185\[TEST08] TEST\3key.c"
 277  007F  3800     R  	snz _uF5[0].0
 277  0080  2800     R  	jmp _L63
 277  0081  34D2        	clr [82].1
 277  0082              _L63:
 278  0082              #line 278 "F:\HTMCU\MB-T006-HT66F0185\[TEST08] TEST\3key.c"
 278  0082  3800     R  	snz _uF6[0].0
 278  0083  2800     R  	jmp _L64
 278  0084  3552        	clr [82].2
 278  0085              _L64:
 279  0085              #line 279 "F:\HTMCU\MB-T006-HT66F0185\[TEST08] TEST\3key.c"
 279  0085  3800     R  	snz _uF7[0].0
 279  0086  2800     R  	jmp _L65
 279  0087  35D2        	clr [82].3
 279  0088              _L65:
 280  0088              #line 280 "F:\HTMCU\MB-T006-HT66F0185\[TEST08] TEST\3key.c"
 280  0088  3441        	clr [65].0
 281  0089              #line 281 "F:\HTMCU\MB-T006-HT66F0185\[TEST08] TEST\3key.c"
 281  0089  2800     R  	jmp _L43
 281  008A              _L56:
 284  008A              #line 284 "F:\HTMCU\MB-T006-HT66F0185\[TEST08] TEST\3key.c"
 284  008A  3800     R  	snz _uF4[0].1
文件：3key.c       编译器版本 HGASM 0202 页次13

 284  008B  2800     R  	jmp _L66
 284  008C  3452        	clr [82].0
 284  008D              _L66:
 285  008D              #line 285 "F:\HTMCU\MB-T006-HT66F0185\[TEST08] TEST\3key.c"
 285  008D  3800     R  	snz _uF5[0].1
 285  008E  2800     R  	jmp _L67
 285  008F  34D2        	clr [82].1
 285  0090              _L67:
 286  0090              #line 286 "F:\HTMCU\MB-T006-HT66F0185\[TEST08] TEST\3key.c"
 286  0090  3800     R  	snz _uF6[0].1
 286  0091  2800     R  	jmp _L68
 286  0092  3552        	clr [82].2
 286  0093              _L68:
 287  0093              #line 287 "F:\HTMCU\MB-T006-HT66F0185\[TEST08] TEST\3key.c"
 287  0093  3800     R  	snz _uF7[0].1
 287  0094  2800     R  	jmp _L69
 287  0095  35D2        	clr [82].3
 287  0096              _L69:
 288  0096              #line 288 "F:\HTMCU\MB-T006-HT66F0185\[TEST08] TEST\3key.c"
 288  0096  34C1        	clr [65].1
 289  0097              #line 289 "F:\HTMCU\MB-T006-HT66F0185\[TEST08] TEST\3key.c"
 289  0097  2800     R  	jmp _L43
 289  0098              _L57:
 292  0098              #line 292 "F:\HTMCU\MB-T006-HT66F0185\[TEST08] TEST\3key.c"
 292  0098  3800     R  	snz _uF4[0].2
 292  0099  2800     R  	jmp _L70
 292  009A  3452        	clr [82].0
 292  009B              _L70:
 293  009B              #line 293 "F:\HTMCU\MB-T006-HT66F0185\[TEST08] TEST\3key.c"
 293  009B  3800     R  	snz _uF5[0].2
 293  009C  2800     R  	jmp _L71
 293  009D  34D2        	clr [82].1
 293  009E              _L71:
 294  009E              #line 294 "F:\HTMCU\MB-T006-HT66F0185\[TEST08] TEST\3key.c"
 294  009E  3800     R  	snz _uF6[0].2
 294  009F  2800     R  	jmp _L72
 294  00A0  3552        	clr [82].2
 294  00A1              _L72:
 295  00A1              #line 295 "F:\HTMCU\MB-T006-HT66F0185\[TEST08] TEST\3key.c"
 295  00A1  3800     R  	snz _uF7[0].2
 295  00A2  2800     R  	jmp _L73
 295  00A3  35D2        	clr [82].3
 295  00A4              _L73:
 296  00A4              #line 296 "F:\HTMCU\MB-T006-HT66F0185\[TEST08] TEST\3key.c"
 296  00A4  3541        	clr [65].2
 297  00A5              #line 297 "F:\HTMCU\MB-T006-HT66F0185\[TEST08] TEST\3key.c"
 297  00A5  2800     R  	jmp _L43
 297  00A6              _L58:
 300  00A6              #line 300 "F:\HTMCU\MB-T006-HT66F0185\[TEST08] TEST\3key.c"
 300  00A6  3800     R  	snz _uF4[0].3
 300  00A7  2800     R  	jmp _L74
 300  00A8  3452        	clr [82].0
 300  00A9              _L74:
 301  00A9              #line 301 "F:\HTMCU\MB-T006-HT66F0185\[TEST08] TEST\3key.c"
 301  00A9  3800     R  	snz _uF5[0].3
 301  00AA  2800     R  	jmp _L75
 301  00AB  34D2        	clr [82].1
 301  00AC              _L75:
 302  00AC              #line 302 "F:\HTMCU\MB-T006-HT66F0185\[TEST08] TEST\3key.c"
 302  00AC  3800     R  	snz _uF6[0].3
文件：3key.c       编译器版本 HGASM 0202 页次14

 302  00AD  2800     R  	jmp _L76
 302  00AE  3552        	clr [82].2
 302  00AF              _L76:
 303  00AF              #line 303 "F:\HTMCU\MB-T006-HT66F0185\[TEST08] TEST\3key.c"
 303  00AF  3800     R  	snz _uF7[0].3
 303  00B0  2800     R  	jmp _L77
 303  00B1  35D2        	clr [82].3
 303  00B2              _L77:
 305  00B2              #line 305 "F:\HTMCU\MB-T006-HT66F0185\[TEST08] TEST\3key.c"
 305  00B2  35C1        	clr [65].3
 306  00B3              #line 306 "F:\HTMCU\MB-T006-HT66F0185\[TEST08] TEST\3key.c"
 306  00B3  2800     R  	jmp _L43
 306  00B4              _L59:
 309  00B4              #line 309 "F:\HTMCU\MB-T006-HT66F0185\[TEST08] TEST\3key.c"
 309  00B4  3800     R  	snz _uF4[0].4
 309  00B5  2800     R  	jmp _L78
 309  00B6  3452        	clr [82].0
 309  00B7              _L78:
 310  00B7              #line 310 "F:\HTMCU\MB-T006-HT66F0185\[TEST08] TEST\3key.c"
 310  00B7  3800     R  	snz _uF5[0].4
 310  00B8  2800     R  	jmp _L79
 310  00B9  34D2        	clr [82].1
 310  00BA              _L79:
 311  00BA              #line 311 "F:\HTMCU\MB-T006-HT66F0185\[TEST08] TEST\3key.c"
 311  00BA  3800     R  	snz _uF6[0].4
 311  00BB  2800     R  	jmp _L80
 311  00BC  3552        	clr [82].2
 311  00BD              _L80:
 312  00BD              #line 312 "F:\HTMCU\MB-T006-HT66F0185\[TEST08] TEST\3key.c"
 312  00BD  3800     R  	snz _uF7[0].4
 312  00BE  2800     R  	jmp _L81
 312  00BF  35D2        	clr [82].3
 312  00C0              _L81:
 314  00C0              #line 314 "F:\HTMCU\MB-T006-HT66F0185\[TEST08] TEST\3key.c"
 314  00C0  3641        	clr [65].4
 315  00C1              #line 315 "F:\HTMCU\MB-T006-HT66F0185\[TEST08] TEST\3key.c"
 315  00C1  2800     R  	jmp _L43
 315  00C2              _L60:
 318  00C2              #line 318 "F:\HTMCU\MB-T006-HT66F0185\[TEST08] TEST\3key.c"
 318  00C2  3800     R  	snz _uF4[0].5
 318  00C3  2800     R  	jmp _L82
 318  00C4  3452        	clr [82].0
 318  00C5              _L82:
 319  00C5              #line 319 "F:\HTMCU\MB-T006-HT66F0185\[TEST08] TEST\3key.c"
 319  00C5  3800     R  	snz _uF5[0].5
 319  00C6  2800     R  	jmp _L83
 319  00C7  34D2        	clr [82].1
 319  00C8              _L83:
 320  00C8              #line 320 "F:\HTMCU\MB-T006-HT66F0185\[TEST08] TEST\3key.c"
 320  00C8  3800     R  	snz _uF6[0].5
 320  00C9  2800     R  	jmp _L84
 320  00CA  3552        	clr [82].2
 320  00CB              _L84:
 321  00CB              #line 321 "F:\HTMCU\MB-T006-HT66F0185\[TEST08] TEST\3key.c"
 321  00CB  3800     R  	snz _uF7[0].5
 321  00CC  2800     R  	jmp _L85
 321  00CD  35D2        	clr [82].3
 321  00CE              _L85:
 323  00CE              #line 323 "F:\HTMCU\MB-T006-HT66F0185\[TEST08] TEST\3key.c"
 323  00CE  36C1        	clr [65].5
文件：3key.c       编译器版本 HGASM 0202 页次15

 324  00CF              #line 324 "F:\HTMCU\MB-T006-HT66F0185\[TEST08] TEST\3key.c"
 324  00CF  2800     R  	jmp _L43
 324  00D0              _L177:
 327  00D0              #line 327 "F:\HTMCU\MB-T006-HT66F0185\[TEST08] TEST\3key.c"
 327  00D0  3800     R  	snz _uF4[0].6
 327  00D1  2800     R  	jmp _L86
 327  00D2  3452        	clr [82].0
 327  00D3              _L86:
 328  00D3              #line 328 "F:\HTMCU\MB-T006-HT66F0185\[TEST08] TEST\3key.c"
 328  00D3  3800     R  	snz _uF5[0].6
 328  00D4  2800     R  	jmp _L87
 328  00D5  34D2        	clr [82].1
 328  00D6              _L87:
 329  00D6              #line 329 "F:\HTMCU\MB-T006-HT66F0185\[TEST08] TEST\3key.c"
 329  00D6  3800     R  	snz _uF6[0].6
 329  00D7  2800     R  	jmp _L88
 329  00D8  3552        	clr [82].2
 329  00D9              _L88:
 330  00D9              #line 330 "F:\HTMCU\MB-T006-HT66F0185\[TEST08] TEST\3key.c"
 330  00D9  3800     R  	snz _uF7[0].6
 330  00DA  2800     R  	jmp _L89
 330  00DB  35D2        	clr [82].3
 330  00DC              _L89:
 331  00DC              #line 331 "F:\HTMCU\MB-T006-HT66F0185\[TEST08] TEST\3key.c"
 331  00DC  1F00     R  	clr _wei[0]
 332  00DD              #line 332 "F:\HTMCU\MB-T006-HT66F0185\[TEST08] TEST\3key.c"
 332  00DD  3741        	clr [65].6
 332  00DE              _L43:
 332  00DE  0700     E  	mov a,r2
 332  00DF  008A        	mov status,a
 332  00E0  0700     E  	mov a,r1
 332  00E1  0004        	reti
 332  00E2              _isr_TM0 endp
 332  00E2              
 332  00E2              #line 332 "F:\HTMCU\MB-T006-HT66F0185\[TEST08] TEST\3key.c"
 332  00E2              #pragma debug scope 1 1
 332  00E2              public _buz_beep
 332  00E2              #pragma debug scope 12 1
 339  00E2              #line 339 "F:\HTMCU\MB-T006-HT66F0185\[TEST08] TEST\3key.c"
 339  0000              _buz_beep .section 'code'
 339  0000              _buz_beep proc
 340  0000              #line 340 "F:\HTMCU\MB-T006-HT66F0185\[TEST08] TEST\3key.c"
 340  0000  3800     R  	snz _uF1[0].0
 340  0001  2800     R  	jmp _L178
 342  0002              #line 342 "F:\HTMCU\MB-T006-HT66F0185\[TEST08] TEST\3key.c"
 342  0002  3400     R  	clr _uF1[0].0
 343  0003              #line 343 "F:\HTMCU\MB-T006-HT66F0185\[TEST08] TEST\3key.c"
 343  0003  3800     R  	snz _uF3[0].0
 343  0004  2800     R  	jmp _L182
 345  0005              #line 345 "F:\HTMCU\MB-T006-HT66F0185\[TEST08] TEST\3key.c"
 345  0005  1500     R  	deca _bBbSound[0]
 345  0006  0080     E  	mov ra,a
 345  0007  0700     E  	mov a,ra
 345  0008  0080     R  	mov _bBbSound[0],a
 346  0009              #line 346 "F:\HTMCU\MB-T006-HT66F0185\[TEST08] TEST\3key.c"
 346  0009  0F01        	mov a,1
 346  000A  0200     E  	sub a,ra
 346  000B  1185        	swap acc
 346  000C  040A        	xor a,status
 346  000D  3D85        	sz acc.3
文件：3key.c       编译器版本 HGASM 0202 页次16

 346  000E  2800     R  	jmp _L182
 348  000F              #line 348 "F:\HTMCU\MB-T006-HT66F0185\[TEST08] TEST\3key.c"
 348  000F  3400     R  	clr _uF3[0].0
 349  0010              #line 349 "F:\HTMCU\MB-T006-HT66F0185\[TEST08] TEST\3key.c"
 349  0010  1700     R  	sdza _bbRam[0]
 349  0011  2800     R  	jmp _L184
 351  0012              #line 351 "F:\HTMCU\MB-T006-HT66F0185\[TEST08] TEST\3key.c"
 351  0012  0700     R  	mov a,_bbTime[0]
 351  0013  0080     R  	mov _bBbSound[0],a
 351  0014  2800     R  	jmp _L182
 351  0015              _L184:
 355  0015              #line 355 "F:\HTMCU\MB-T006-HT66F0185\[TEST08] TEST\3key.c"
 355  0015  0700     R  	mov a,_bbCnt[0]
 355  0016  0080     R  	mov _bBbSound[0],a
 355  0017              _L182:
 360  0017              #line 360 "F:\HTMCU\MB-T006-HT66F0185\[TEST08] TEST\3key.c"
 360  0017  3C00     R  	sz _uF3[0].0
 360  0018  2800     R  	jmp _L186
 360  0019  0700     R  	mov a,_bbRam[0]
 360  001A  0A02        	sub a,2
 360  001B  390A        	snz z
 360  001C  2800     R  	jmp _L186
 362  001D              #line 362 "F:\HTMCU\MB-T006-HT66F0185\[TEST08] TEST\3key.c"
 362  001D  1500     R  	deca _bBbSound[0]
 362  001E  0080     E  	mov ra,a
 362  001F  0700     E  	mov a,ra
 362  0020  0080     R  	mov _bBbSound[0],a
 363  0021              #line 363 "F:\HTMCU\MB-T006-HT66F0185\[TEST08] TEST\3key.c"
 363  0021  0F01        	mov a,1
 363  0022  0200     E  	sub a,ra
 363  0023  1185        	swap acc
 363  0024  040A        	xor a,status
 363  0025  3D85        	sz acc.3
 363  0026  2800     R  	jmp _L186
 365  0027              #line 365 "F:\HTMCU\MB-T006-HT66F0185\[TEST08] TEST\3key.c"
 365  0027  3000     R  	set _uF3[0].0
 366  0028              #line 366 "F:\HTMCU\MB-T006-HT66F0185\[TEST08] TEST\3key.c"
 366  0028  0F01        	mov a,1
 366  0029  0080     R  	mov _bbRam[0],a
 367  002A              #line 367 "F:\HTMCU\MB-T006-HT66F0185\[TEST08] TEST\3key.c"
 367  002A  0700     R  	mov a,_bbTime[0]
 367  002B  0080     R  	mov _bBbSound[0],a
 367  002C              _L186:
 370  002C              #line 370 "F:\HTMCU\MB-T006-HT66F0185\[TEST08] TEST\3key.c"
 370  002C  3C00     R  	sz _uF3[0].0
 370  002D  2800     R  	jmp _L178
 370  002E  1700     R  	sdza _bbRam[0]
 370  002F  2800     R  	jmp _L178
 372  0030              #line 372 "F:\HTMCU\MB-T006-HT66F0185\[TEST08] TEST\3key.c"
 372  0030  1500     R  	deca _bBbSound[0]
 372  0031  0080     E  	mov ra,a
 372  0032  0700     E  	mov a,ra
 372  0033  0080     R  	mov _bBbSound[0],a
 373  0034              #line 373 "F:\HTMCU\MB-T006-HT66F0185\[TEST08] TEST\3key.c"
 373  0034  0F01        	mov a,1
 373  0035  0200     E  	sub a,ra
 373  0036  1185        	swap acc
 373  0037  040A        	xor a,status
 373  0038  3D85        	sz acc.3
 373  0039  2800     R  	jmp _L178
文件：3key.c       编译器版本 HGASM 0202 页次17

 375  003A              #line 375 "F:\HTMCU\MB-T006-HT66F0185\[TEST08] TEST\3key.c"
 375  003A  3000     R  	set _uF3[0].0
 376  003B              #line 376 "F:\HTMCU\MB-T006-HT66F0185\[TEST08] TEST\3key.c"
 376  003B  1F00     R  	clr _bbRam[0]
 377  003C              #line 377 "F:\HTMCU\MB-T006-HT66F0185\[TEST08] TEST\3key.c"
 377  003C  0700     R  	mov a,_bbTime[0]
 377  003D  0080     R  	mov _bBbSound[0],a
 377  003E              _L178:
 377  003E  0003        	ret
 377  003F              _buz_beep endp
 377  003F              #line 377 "F:\HTMCU\MB-T006-HT66F0185\[TEST08] TEST\3key.c"
 377  003F              #pragma debug scope 1 1
 377  003F              public _key_scal
 377  003F              #pragma debug scope 13 1
 385  003F              #line 385 "F:\HTMCU\MB-T006-HT66F0185\[TEST08] TEST\3key.c"
 385  0000              _key_scal .section 'code'
 385  0000              _key_scal proc
 386  0000              #line 386 "F:\HTMCU\MB-T006-HT66F0185\[TEST08] TEST\3key.c"
 386  0000  3800     R  	snz _uF1[0].1
 386  0001  2800     R  	jmp _L189
 390  0002              #line 390 "F:\HTMCU\MB-T006-HT66F0185\[TEST08] TEST\3key.c"
 390  0002  3400     R  	clr _uF1[0].1
 391  0003              #line 391 "F:\HTMCU\MB-T006-HT66F0185\[TEST08] TEST\3key.c"
 391  0003  3925        	snz [37].2
 391  0004  2800     R  	jmp _L192
 391  0005  39A5        	snz [37].3
 391  0006  2800     R  	jmp _L192
 391  0007  3A25        	snz [37].4
 391  0008  2800     R  	jmp _L192
 393  0009              #line 393 "F:\HTMCU\MB-T006-HT66F0185\[TEST08] TEST\3key.c"
 393  0009  1F00     R  	clr _keystep[0]
 394  000A              #line 394 "F:\HTMCU\MB-T006-HT66F0185\[TEST08] TEST\3key.c"
 394  000A  3400     R  	clr _uF2[0].6
 395  000B              #line 395 "F:\HTMCU\MB-T006-HT66F0185\[TEST08] TEST\3key.c"
 395  000B  3000     R  	set _uF2[0].0
 396  000C              #line 396 "F:\HTMCU\MB-T006-HT66F0185\[TEST08] TEST\3key.c"
 396  000C  3400     R  	clr _uF2[0].3
 397  000D              #line 397 "F:\HTMCU\MB-T006-HT66F0185\[TEST08] TEST\3key.c"
 397  000D  3400     R  	clr _uF2[0].2
 398  000E              #line 398 "F:\HTMCU\MB-T006-HT66F0185\[TEST08] TEST\3key.c"
 398  000E  3400     R  	clr _uF2[0].4
 399  000F              #line 399 "F:\HTMCU\MB-T006-HT66F0185\[TEST08] TEST\3key.c"
 399  000F  3400     R  	clr _uF2[0].1
 399  0010  2800     R  	jmp _L193
 399  0011              _L192:
 403  0011              #line 403 "F:\HTMCU\MB-T006-HT66F0185\[TEST08] TEST\3key.c"
 403  0011  1480     R  	inc _keystep[0]
 404  0012              #line 404 "F:\HTMCU\MB-T006-HT66F0185\[TEST08] TEST\3key.c"
 404  0012  0F05        	mov a,5
 404  0013  0200     R  	sub a,_keystep[0]
 404  0014  3C0A        	sz c
 404  0015  2800     R  	jmp _L193
 406  0016              #line 406 "F:\HTMCU\MB-T006-HT66F0185\[TEST08] TEST\3key.c"
 406  0016  3925        	snz [37].2
 406  0017  2800     R  	jmp _L195
 406  0018  39A5        	snz [37].3
 406  0019  2800     R  	jmp _L195
 406  001A  3E25        	sz [37].4
 406  001B  2800     R  	jmp _L195
 408  001C              #line 408 "F:\HTMCU\MB-T006-HT66F0185\[TEST08] TEST\3key.c"
文件：3key.c       编译器版本 HGASM 0202 页次18

 408  001C  3000     R  	set _uF2[0].2
 408  001D              _L195:
 410  001D              #line 410 "F:\HTMCU\MB-T006-HT66F0185\[TEST08] TEST\3key.c"
 410  001D  3D25        	sz [37].2
 410  001E  2800     R  	jmp _L196
 410  001F  39A5        	snz [37].3
 410  0020  2800     R  	jmp _L196
 410  0021  3A25        	snz [37].4
 410  0022  2800     R  	jmp _L196
 412  0023              #line 412 "F:\HTMCU\MB-T006-HT66F0185\[TEST08] TEST\3key.c"
 412  0023  3000     R  	set _uF2[0].4
 412  0024              _L196:
 414  0024              #line 414 "F:\HTMCU\MB-T006-HT66F0185\[TEST08] TEST\3key.c"
 414  0024  3925        	snz [37].2
 414  0025  2800     R  	jmp _L193
 414  0026  3DA5        	sz [37].3
 414  0027  2800     R  	jmp _L193
 414  0028  3A25        	snz [37].4
 414  0029  2800     R  	jmp _L193
 416  002A              #line 416 "F:\HTMCU\MB-T006-HT66F0185\[TEST08] TEST\3key.c"
 416  002A  3000     R  	set _uF2[0].3
 416  002B              _L193:
 423  002B              #line 423 "F:\HTMCU\MB-T006-HT66F0185\[TEST08] TEST\3key.c"
 423  002B  0700     R  	mov a,_uF2[0]
 423  002C  0E09        	and a,9
 423  002D  0080     E  	mov ra,a
 423  002E  0700     E  	mov a,ra
 423  002F  0A09        	sub a,9
 423  0030  390A        	snz z
 423  0031  2800     R  	jmp _L189
 425  0032              #line 425 "F:\HTMCU\MB-T006-HT66F0185\[TEST08] TEST\3key.c"
 425  0032  3400     R  	clr _uF2[0].0
 426  0033              #line 426 "F:\HTMCU\MB-T006-HT66F0185\[TEST08] TEST\3key.c"
 426  0033  3000     R  	set _uF2[0].1
 426  0034              _L189:
 426  0034  0003        	ret
 426  0035              _key_scal endp
 426  0035              #line 426 "F:\HTMCU\MB-T006-HT66F0185\[TEST08] TEST\3key.c"
 426  0035              #pragma debug scope 1 1
 426  0035              public _time_set
 426  0035              #pragma debug scope 14 1
 431  0035              #line 431 "F:\HTMCU\MB-T006-HT66F0185\[TEST08] TEST\3key.c"
 431  0000              _time_set .section 'code'
 431  0000              _time_set proc
 431  0000  00              local _time_set_2 db 1 dup(?)	; 0,1
 432  0001              #line 432 "F:\HTMCU\MB-T006-HT66F0185\[TEST08] TEST\3key.c"
 432  0000  0700     R  	mov a,_uF2[0]
 432  0001  0E05        	and a,5
 432  0002  0080     E  	mov ra,a
 432  0003  0700     E  	mov a,ra
 432  0004  0A05        	sub a,5
 432  0005  390A        	snz z
 432  0006  2800     R  	jmp _L228
 434  0007              #line 434 "F:\HTMCU\MB-T006-HT66F0185\[TEST08] TEST\3key.c"
 434  0007  3400     R  	clr _uF2[0].2
 435  0008              #line 435 "F:\HTMCU\MB-T006-HT66F0185\[TEST08] TEST\3key.c"
 435  0008  3400     R  	clr _uF2[0].0
 436  0009              #line 436 "F:\HTMCU\MB-T006-HT66F0185\[TEST08] TEST\3key.c"
 436  0009  0700     R  	mov a,_data[0]
 436  000A  0A02        	sub a,2
文件：3key.c       编译器版本 HGASM 0202 页次19

 436  000B  390A        	snz z
 436  000C  2800     R  	jmp _L229
 438  000D              #line 438 "F:\HTMCU\MB-T006-HT66F0185\[TEST08] TEST\3key.c"
 438  000D  1580     R  	dec _peking_min[0]
 439  000E              #line 439 "F:\HTMCU\MB-T006-HT66F0185\[TEST08] TEST\3key.c"
 439  000E  1F00     R  	clr _peking_second[0]
 439  000F              _L229:
 441  000F              #line 441 "F:\HTMCU\MB-T006-HT66F0185\[TEST08] TEST\3key.c"
 441  000F  1700     R  	sdza _data[0]
 441  0010  2800     R  	jmp _L230
 443  0011              #line 443 "F:\HTMCU\MB-T006-HT66F0185\[TEST08] TEST\3key.c"
 443  0011  1580     R  	dec _peking_hour[0]
 444  0012              #line 444 "F:\HTMCU\MB-T006-HT66F0185\[TEST08] TEST\3key.c"
 444  0012  1F00     R  	clr _peking_second[0]
 444  0013              _L230:
 447  0013              #line 447 "F:\HTMCU\MB-T006-HT66F0185\[TEST08] TEST\3key.c"
 447  0013  0700     R  	mov a,_data[0]
 447  0014  0A04        	sub a,4
 447  0015  390A        	snz z
 447  0016  2800     R  	jmp _L231
 449  0017              #line 449 "F:\HTMCU\MB-T006-HT66F0185\[TEST08] TEST\3key.c"
 449  0017  1580     R  	dec _alarm_min[0]
 450  0018              #line 450 "F:\HTMCU\MB-T006-HT66F0185\[TEST08] TEST\3key.c"
 450  0018  0F3B        	mov a,59
 450  0019  0080     R  	mov _alarm_second[0],a
 450  001A              _L231:
 452  001A              #line 452 "F:\HTMCU\MB-T006-HT66F0185\[TEST08] TEST\3key.c"
 452  001A  0700     R  	mov a,_data[0]
 452  001B  0A03        	sub a,3
 452  001C  390A        	snz z
 452  001D  2800     R  	jmp _L228
 454  001E              #line 454 "F:\HTMCU\MB-T006-HT66F0185\[TEST08] TEST\3key.c"
 454  001E  1580     R  	dec _alarm_hour[0]
 455  001F              #line 455 "F:\HTMCU\MB-T006-HT66F0185\[TEST08] TEST\3key.c"
 455  001F  0F3B        	mov a,59
 455  0020  0080     R  	mov _alarm_second[0],a
 455  0021              _L228:
 458  0021              #line 458 "F:\HTMCU\MB-T006-HT66F0185\[TEST08] TEST\3key.c"
 458  0021  0700     R  	mov a,_uF2[0]
 458  0022  0E11        	and a,17
 458  0023  0080     E  	mov ra,a
 458  0024  0700     E  	mov a,ra
 458  0025  0A11        	sub a,17
 458  0026  390A        	snz z
 458  0027  2800     R  	jmp _L234
 460  0028              #line 460 "F:\HTMCU\MB-T006-HT66F0185\[TEST08] TEST\3key.c"
 460  0028  3400     R  	clr _uF2[0].4
 461  0029              #line 461 "F:\HTMCU\MB-T006-HT66F0185\[TEST08] TEST\3key.c"
 461  0029  3400     R  	clr _uF2[0].0
 462  002A              #line 462 "F:\HTMCU\MB-T006-HT66F0185\[TEST08] TEST\3key.c"
 462  002A  0700     R  	mov a,_data[0]
 462  002B  0A02        	sub a,2
 462  002C  390A        	snz z
 462  002D  2800     R  	jmp _L235
 464  002E              #line 464 "F:\HTMCU\MB-T006-HT66F0185\[TEST08] TEST\3key.c"
 464  002E  1480     R  	inc _peking_min[0]
 465  002F              #line 465 "F:\HTMCU\MB-T006-HT66F0185\[TEST08] TEST\3key.c"
 465  002F  1F00     R  	clr _peking_second[0]
 465  0030              _L235:
 467  0030              #line 467 "F:\HTMCU\MB-T006-HT66F0185\[TEST08] TEST\3key.c"
文件：3key.c       编译器版本 HGASM 0202 页次20

 467  0030  1700     R  	sdza _data[0]
 467  0031  2800     R  	jmp _L236
 469  0032              #line 469 "F:\HTMCU\MB-T006-HT66F0185\[TEST08] TEST\3key.c"
 469  0032  1480     R  	inc _peking_hour[0]
 470  0033              #line 470 "F:\HTMCU\MB-T006-HT66F0185\[TEST08] TEST\3key.c"
 470  0033  1F00     R  	clr _peking_second[0]
 470  0034              _L236:
 473  0034              #line 473 "F:\HTMCU\MB-T006-HT66F0185\[TEST08] TEST\3key.c"
 473  0034  0700     R  	mov a,_data[0]
 473  0035  0A04        	sub a,4
 473  0036  390A        	snz z
 473  0037  2800     R  	jmp _L237
 475  0038              #line 475 "F:\HTMCU\MB-T006-HT66F0185\[TEST08] TEST\3key.c"
 475  0038  1480     R  	inc _alarm_min[0]
 476  0039              #line 476 "F:\HTMCU\MB-T006-HT66F0185\[TEST08] TEST\3key.c"
 476  0039  0F3B        	mov a,59
 476  003A  0080     R  	mov _alarm_second[0],a
 476  003B              _L237:
 478  003B              #line 478 "F:\HTMCU\MB-T006-HT66F0185\[TEST08] TEST\3key.c"
 478  003B  0700     R  	mov a,_data[0]
 478  003C  0A03        	sub a,3
 478  003D  390A        	snz z
 478  003E  2800     R  	jmp _L234
 480  003F              #line 480 "F:\HTMCU\MB-T006-HT66F0185\[TEST08] TEST\3key.c"
 480  003F  1480     R  	inc _alarm_hour[0]
 481  0040              #line 481 "F:\HTMCU\MB-T006-HT66F0185\[TEST08] TEST\3key.c"
 481  0040  0F3B        	mov a,59
 481  0041  0080     R  	mov _alarm_second[0],a
 481  0042              _L234:
 485  0042              #line 485 "F:\HTMCU\MB-T006-HT66F0185\[TEST08] TEST\3key.c"
 485  0042  0700     R  	mov a,_uF2[0]
 485  0043  0080     R  	mov _time_set_2[0],a
 485  0044  3800     R  	snz _time_set_2[0].6
 485  0045  2800     R  	jmp _L240
 485  0046  3800     R  	snz _uF1[0].2
 485  0047  2800     R  	jmp _L240
 487  0048              #line 487 "F:\HTMCU\MB-T006-HT66F0185\[TEST08] TEST\3key.c"
 487  0048  3400     R  	clr _uF1[0].2
 488  0049              #line 488 "F:\HTMCU\MB-T006-HT66F0185\[TEST08] TEST\3key.c"
 488  0049  0700     R  	mov a,_data[0]
 488  004A  0A02        	sub a,2
 488  004B  390A        	snz z
 488  004C  2800     R  	jmp _L243
 490  004D              #line 490 "F:\HTMCU\MB-T006-HT66F0185\[TEST08] TEST\3key.c"
 490  004D  3800     R  	snz _time_set_2[0].2
 490  004E  2800     R  	jmp _L244
 492  004F              #line 492 "F:\HTMCU\MB-T006-HT66F0185\[TEST08] TEST\3key.c"
 492  004F  1580     R  	dec _peking_min[0]
 493  0050              #line 493 "F:\HTMCU\MB-T006-HT66F0185\[TEST08] TEST\3key.c"
 493  0050  1F00     R  	clr _peking_second[0]
 493  0051              _L244:
 495  0051              #line 495 "F:\HTMCU\MB-T006-HT66F0185\[TEST08] TEST\3key.c"
 495  0051  3800     R  	snz _time_set_2[0].4
 495  0052  2800     R  	jmp _L243
 497  0053              #line 497 "F:\HTMCU\MB-T006-HT66F0185\[TEST08] TEST\3key.c"
 497  0053  1480     R  	inc _peking_min[0]
 498  0054              #line 498 "F:\HTMCU\MB-T006-HT66F0185\[TEST08] TEST\3key.c"
 498  0054  1F00     R  	clr _peking_second[0]
 498  0055              _L243:
 501  0055              #line 501 "F:\HTMCU\MB-T006-HT66F0185\[TEST08] TEST\3key.c"
文件：3key.c       编译器版本 HGASM 0202 页次21

 501  0055  0700     R  	mov a,_data[0]
 501  0056  0A04        	sub a,4
 501  0057  390A        	snz z
 501  0058  2800     R  	jmp _L247
 503  0059              #line 503 "F:\HTMCU\MB-T006-HT66F0185\[TEST08] TEST\3key.c"
 503  0059  3800     R  	snz _time_set_2[0].2
 503  005A  2800     R  	jmp _L248
 505  005B              #line 505 "F:\HTMCU\MB-T006-HT66F0185\[TEST08] TEST\3key.c"
 505  005B  1580     R  	dec _alarm_min[0]
 506  005C              #line 506 "F:\HTMCU\MB-T006-HT66F0185\[TEST08] TEST\3key.c"
 506  005C  0F3B        	mov a,59
 506  005D  0080     R  	mov _alarm_second[0],a
 506  005E              _L248:
 508  005E              #line 508 "F:\HTMCU\MB-T006-HT66F0185\[TEST08] TEST\3key.c"
 508  005E  3800     R  	snz _time_set_2[0].4
 508  005F  2800     R  	jmp _L247
 510  0060              #line 510 "F:\HTMCU\MB-T006-HT66F0185\[TEST08] TEST\3key.c"
 510  0060  1480     R  	inc _alarm_min[0]
 511  0061              #line 511 "F:\HTMCU\MB-T006-HT66F0185\[TEST08] TEST\3key.c"
 511  0061  0F3B        	mov a,59
 511  0062  0080     R  	mov _alarm_second[0],a
 511  0063              _L247:
 514  0063              #line 514 "F:\HTMCU\MB-T006-HT66F0185\[TEST08] TEST\3key.c"
 514  0063  1700     R  	sdza _data[0]
 514  0064  2800     R  	jmp _L251
 516  0065              #line 516 "F:\HTMCU\MB-T006-HT66F0185\[TEST08] TEST\3key.c"
 516  0065  3800     R  	snz _time_set_2[0].2
 516  0066  2800     R  	jmp _L252
 518  0067              #line 518 "F:\HTMCU\MB-T006-HT66F0185\[TEST08] TEST\3key.c"
 518  0067  1580     R  	dec _peking_hour[0]
 519  0068              #line 519 "F:\HTMCU\MB-T006-HT66F0185\[TEST08] TEST\3key.c"
 519  0068  1F00     R  	clr _peking_second[0]
 519  0069              _L252:
 521  0069              #line 521 "F:\HTMCU\MB-T006-HT66F0185\[TEST08] TEST\3key.c"
 521  0069  3800     R  	snz _time_set_2[0].4
 521  006A  2800     R  	jmp _L251
 523  006B              #line 523 "F:\HTMCU\MB-T006-HT66F0185\[TEST08] TEST\3key.c"
 523  006B  1480     R  	inc _peking_hour[0]
 524  006C              #line 524 "F:\HTMCU\MB-T006-HT66F0185\[TEST08] TEST\3key.c"
 524  006C  1F00     R  	clr _peking_second[0]
 524  006D              _L251:
 527  006D              #line 527 "F:\HTMCU\MB-T006-HT66F0185\[TEST08] TEST\3key.c"
 527  006D  0700     R  	mov a,_data[0]
 527  006E  0A03        	sub a,3
 527  006F  390A        	snz z
 527  0070  2800     R  	jmp _L240
 529  0071              #line 529 "F:\HTMCU\MB-T006-HT66F0185\[TEST08] TEST\3key.c"
 529  0071  3800     R  	snz _time_set_2[0].2
 529  0072  2800     R  	jmp _L254
 531  0073              #line 531 "F:\HTMCU\MB-T006-HT66F0185\[TEST08] TEST\3key.c"
 531  0073  1580     R  	dec _alarm_hour[0]
 532  0074              #line 532 "F:\HTMCU\MB-T006-HT66F0185\[TEST08] TEST\3key.c"
 532  0074  0F3B        	mov a,59
 532  0075  0080     R  	mov _alarm_second[0],a
 532  0076              _L254:
 534  0076              #line 534 "F:\HTMCU\MB-T006-HT66F0185\[TEST08] TEST\3key.c"
 534  0076  3800     R  	snz _time_set_2[0].4
 534  0077  2800     R  	jmp _L240
 536  0078              #line 536 "F:\HTMCU\MB-T006-HT66F0185\[TEST08] TEST\3key.c"
 536  0078  1480     R  	inc _alarm_hour[0]
文件：3key.c       编译器版本 HGASM 0202 页次22

 537  0079              #line 537 "F:\HTMCU\MB-T006-HT66F0185\[TEST08] TEST\3key.c"
 537  0079  0F3B        	mov a,59
 537  007A  0080     R  	mov _alarm_second[0],a
 537  007B              _L240:
 542  007B              #line 542 "F:\HTMCU\MB-T006-HT66F0185\[TEST08] TEST\3key.c"
 542  007B  3800     R  	snz _alarm_second[0].7
 542  007C  2800     R  	jmp _L256
 544  007D              #line 544 "F:\HTMCU\MB-T006-HT66F0185\[TEST08] TEST\3key.c"
 544  007D  0F3B        	mov a,59
 544  007E  0080     R  	mov _alarm_second[0],a
 545  007F              #line 545 "F:\HTMCU\MB-T006-HT66F0185\[TEST08] TEST\3key.c"
 545  007F  0700     R  	mov a,_data[0]
 545  0080  0A03        	sub a,3
 545  0081  3D0A        	sz z
 545  0082  2800     R  	jmp _L256
 546  0083              #line 546 "F:\HTMCU\MB-T006-HT66F0185\[TEST08] TEST\3key.c"
 546  0083  1580     R  	dec _alarm_min[0]
 546  0084              _L256:
 548  0084              #line 548 "F:\HTMCU\MB-T006-HT66F0185\[TEST08] TEST\3key.c"
 548  0084  3800     R  	snz _alarm_min[0].7
 548  0085  2800     R  	jmp _L259
 550  0086              #line 550 "F:\HTMCU\MB-T006-HT66F0185\[TEST08] TEST\3key.c"
 550  0086  0F3B        	mov a,59
 550  0087  0080     R  	mov _alarm_min[0],a
 551  0088              #line 551 "F:\HTMCU\MB-T006-HT66F0185\[TEST08] TEST\3key.c"
 551  0088  0700     R  	mov a,_data[0]
 551  0089  0A04        	sub a,4
 551  008A  3D0A        	sz z
 551  008B  2800     R  	jmp _L259
 552  008C              #line 552 "F:\HTMCU\MB-T006-HT66F0185\[TEST08] TEST\3key.c"
 552  008C  1580     R  	dec _alarm_hour[0]
 552  008D              _L259:
 554  008D              #line 554 "F:\HTMCU\MB-T006-HT66F0185\[TEST08] TEST\3key.c"
 554  008D  3800     R  	snz _alarm_hour[0].7
 554  008E  2800     R  	jmp _L261
 555  008F              #line 555 "F:\HTMCU\MB-T006-HT66F0185\[TEST08] TEST\3key.c"
 555  008F  0F17        	mov a,23
 555  0090  0080     R  	mov _alarm_hour[0],a
 555  0091              _L261:
 558  0091              #line 558 "F:\HTMCU\MB-T006-HT66F0185\[TEST08] TEST\3key.c"
 558  0091  0F3B        	mov a,59
 558  0092  0200     R  	sub a,_alarm_second[0]
 558  0093  1185        	swap acc
 558  0094  040A        	xor a,status
 558  0095  3985        	snz acc.3
 558  0096  2800     R  	jmp _L262
 560  0097              #line 560 "F:\HTMCU\MB-T006-HT66F0185\[TEST08] TEST\3key.c"
 560  0097  1F00     R  	clr _alarm_second[0]
 560  0098              _L262:
 563  0098              #line 563 "F:\HTMCU\MB-T006-HT66F0185\[TEST08] TEST\3key.c"
 563  0098  0F3B        	mov a,59
 563  0099  0200     R  	sub a,_alarm_min[0]
 563  009A  1185        	swap acc
 563  009B  040A        	xor a,status
 563  009C  3985        	snz acc.3
 563  009D  2800     R  	jmp _L263
 565  009E              #line 565 "F:\HTMCU\MB-T006-HT66F0185\[TEST08] TEST\3key.c"
 565  009E  1F00     R  	clr _alarm_min[0]
 565  009F              _L263:
 568  009F              #line 568 "F:\HTMCU\MB-T006-HT66F0185\[TEST08] TEST\3key.c"
文件：3key.c       编译器版本 HGASM 0202 页次23

 568  009F  0F17        	mov a,23
 568  00A0  0200     R  	sub a,_alarm_hour[0]
 568  00A1  1185        	swap acc
 568  00A2  040A        	xor a,status
 568  00A3  3985        	snz acc.3
 568  00A4  2800     R  	jmp _L264
 570  00A5              #line 570 "F:\HTMCU\MB-T006-HT66F0185\[TEST08] TEST\3key.c"
 570  00A5  1F00     R  	clr _alarm_hour[0]
 570  00A6              _L264:
 573  00A6              #line 573 "F:\HTMCU\MB-T006-HT66F0185\[TEST08] TEST\3key.c"
 573  00A6  0F3B        	mov a,59
 573  00A7  0200     R  	sub a,_peking_second[0]
 573  00A8  1185        	swap acc
 573  00A9  040A        	xor a,status
 573  00AA  3985        	snz acc.3
 573  00AB  2800     R  	jmp _L265
 575  00AC              #line 575 "F:\HTMCU\MB-T006-HT66F0185\[TEST08] TEST\3key.c"
 575  00AC  1F00     R  	clr _peking_second[0]
 576  00AD              #line 576 "F:\HTMCU\MB-T006-HT66F0185\[TEST08] TEST\3key.c"
 576  00AD  1480     R  	inc _peking_min[0]
 576  00AE              _L265:
 578  00AE              #line 578 "F:\HTMCU\MB-T006-HT66F0185\[TEST08] TEST\3key.c"
 578  00AE  0F3B        	mov a,59
 578  00AF  0200     R  	sub a,_peking_min[0]
 578  00B0  1185        	swap acc
 578  00B1  040A        	xor a,status
 578  00B2  3985        	snz acc.3
 578  00B3  2800     R  	jmp _L267
 580  00B4              #line 580 "F:\HTMCU\MB-T006-HT66F0185\[TEST08] TEST\3key.c"
 580  00B4  1F00     R  	clr _peking_min[0]
 581  00B5              #line 581 "F:\HTMCU\MB-T006-HT66F0185\[TEST08] TEST\3key.c"
 581  00B5  0700     R  	mov a,_data[0]
 581  00B6  0A02        	sub a,2
 581  00B7  3D0A        	sz z
 581  00B8  2800     R  	jmp _L267
 583  00B9              #line 583 "F:\HTMCU\MB-T006-HT66F0185\[TEST08] TEST\3key.c"
 583  00B9  1480     R  	inc _peking_hour[0]
 583  00BA              _L267:
 586  00BA              #line 586 "F:\HTMCU\MB-T006-HT66F0185\[TEST08] TEST\3key.c"
 586  00BA  0F17        	mov a,23
 586  00BB  0200     R  	sub a,_peking_hour[0]
 586  00BC  1185        	swap acc
 586  00BD  040A        	xor a,status
 586  00BE  3985        	snz acc.3
 586  00BF  2800     R  	jmp _L269
 588  00C0              #line 588 "F:\HTMCU\MB-T006-HT66F0185\[TEST08] TEST\3key.c"
 588  00C0  1F00     R  	clr _peking_hour[0]
 588  00C1              _L269:
 591  00C1              #line 591 "F:\HTMCU\MB-T006-HT66F0185\[TEST08] TEST\3key.c"
 591  00C1  3800     R  	snz _peking_second[0].7
 591  00C2  2800     R  	jmp _L270
 593  00C3              #line 593 "F:\HTMCU\MB-T006-HT66F0185\[TEST08] TEST\3key.c"
 593  00C3  0F3B        	mov a,59
 593  00C4  0080     R  	mov _peking_second[0],a
 593  00C5              _L270:
 595  00C5              #line 595 "F:\HTMCU\MB-T006-HT66F0185\[TEST08] TEST\3key.c"
 595  00C5  3800     R  	snz _peking_min[0].7
 595  00C6  2800     R  	jmp _L271
 597  00C7              #line 597 "F:\HTMCU\MB-T006-HT66F0185\[TEST08] TEST\3key.c"
 597  00C7  0F3B        	mov a,59
文件：3key.c       编译器版本 HGASM 0202 页次24

 597  00C8  0080     R  	mov _peking_min[0],a
 597  00C9              _L271:
 599  00C9              #line 599 "F:\HTMCU\MB-T006-HT66F0185\[TEST08] TEST\3key.c"
 599  00C9  3800     R  	snz _peking_hour[0].7
 599  00CA  2800     R  	jmp _L272
 601  00CB              #line 601 "F:\HTMCU\MB-T006-HT66F0185\[TEST08] TEST\3key.c"
 601  00CB  0F17        	mov a,23
 601  00CC  0080     R  	mov _peking_hour[0],a
 601  00CD              _L272:
 604  00CD              #line 604 "F:\HTMCU\MB-T006-HT66F0185\[TEST08] TEST\3key.c"
 604  00CD  0F3B        	mov a,59
 604  00CE  0200     R  	sub a,_bj_second[0]
 604  00CF  1185        	swap acc
 604  00D0  040A        	xor a,status
 604  00D1  3985        	snz acc.3
 604  00D2  2800     R  	jmp _L226
 606  00D3              #line 606 "F:\HTMCU\MB-T006-HT66F0185\[TEST08] TEST\3key.c"
 606  00D3  1F00     R  	clr _bj_second[0]
 607  00D4              #line 607 "F:\HTMCU\MB-T006-HT66F0185\[TEST08] TEST\3key.c"
 607  00D4  1480     R  	inc _bj_min[0]
 608  00D5              #line 608 "F:\HTMCU\MB-T006-HT66F0185\[TEST08] TEST\3key.c"
 608  00D5  3C00     R  	sz _bj_min[0].7
 608  00D6  2800     R  	jmp _L226
 608  00D7  1080     R  	sz _bj_min[0]
 608  00D8  2800     R  	jmp _LI6
 608  00D9  2800     R  	jmp _L226
 608  00DA              _LI6:
 610  00DA              #line 610 "F:\HTMCU\MB-T006-HT66F0185\[TEST08] TEST\3key.c"
 610  00DA  1F00     R  	clr _bj_second[0]
 611  00DB              #line 611 "F:\HTMCU\MB-T006-HT66F0185\[TEST08] TEST\3key.c"
 611  00DB  1F00     R  	clr _bj_min[0]
 612  00DC              #line 612 "F:\HTMCU\MB-T006-HT66F0185\[TEST08] TEST\3key.c"
 612  00DC  3400     R  	clr _uF2[0].7
 613  00DD              #line 613 "F:\HTMCU\MB-T006-HT66F0185\[TEST08] TEST\3key.c"
 613  00DD  1F00     R  	clr _data[0]
 613  00DE              _L226:
 613  00DE  0003        	ret
 613  00DF              _time_set endp
 613  00DF              #line 613 "F:\HTMCU\MB-T006-HT66F0185\[TEST08] TEST\3key.c"
 613  00DF              #pragma debug scope 1 1
 613  00DF              public _process_set
 613  00DF              #pragma debug scope 15 1
 620  00DF              #line 620 "F:\HTMCU\MB-T006-HT66F0185\[TEST08] TEST\3key.c"
 620  0000              _process_set .section 'code'
 620  0000              _process_set proc
 620  0000  0002[           local _process_set_2 db 2 dup(?)	; 0,2
            00
            ]
 621  0002              #line 621 "F:\HTMCU\MB-T006-HT66F0185\[TEST08] TEST\3key.c"
 621  0000  3800     R  	snz _uF2[0].1
 621  0001  2800     R  	jmp _L314
 623  0002              #line 623 "F:\HTMCU\MB-T006-HT66F0185\[TEST08] TEST\3key.c"
 623  0002  3400     R  	clr _uF2[0].1
 624  0003              #line 624 "F:\HTMCU\MB-T006-HT66F0185\[TEST08] TEST\3key.c"
 624  0003  1480     R  	inc _data[0]
 625  0004              #line 625 "F:\HTMCU\MB-T006-HT66F0185\[TEST08] TEST\3key.c"
 625  0004  0700     R  	mov a,_data[0]
 625  0005  0A05        	sub a,5
 625  0006  390A        	snz z
 625  0007  2800     R  	jmp _L314
文件：3key.c       编译器版本 HGASM 0202 页次25

 625  0008  1080     R  	sz _alarm_hour[0]
 625  0009  2800     R  	jmp _L314
 625  000A  1080     R  	sz _alarm_min[0]
 625  000B  2800     R  	jmp _L314
 627  000C              #line 627 "F:\HTMCU\MB-T006-HT66F0185\[TEST08] TEST\3key.c"
 627  000C  1F00     R  	clr _data[0]
 627  000D              _L314:
 630  000D              #line 630 "F:\HTMCU\MB-T006-HT66F0185\[TEST08] TEST\3key.c"
 630  000D  1080     R  	sz _alarm_hour[0]
 630  000E  2800     R  	jmp _L316
 630  000F  1080     R  	sz _alarm_min[0]
 630  0010  2800     R  	jmp _L316
 632  0011              #line 632 "F:\HTMCU\MB-T006-HT66F0185\[TEST08] TEST\3key.c"
 632  0011  0F04        	mov a,4
 632  0012  0200     R  	sub a,_data[0]
 632  0013  3C0A        	sz c
 632  0014  2800     R  	jmp _L317
 634  0015              #line 634 "F:\HTMCU\MB-T006-HT66F0185\[TEST08] TEST\3key.c"
 634  0015  3000     R  	set _uF2[0].7
 635  0016              #line 635 "F:\HTMCU\MB-T006-HT66F0185\[TEST08] TEST\3key.c"
 635  0016  3400     R  	clr _uF3[0].5
 636  0017              #line 636 "F:\HTMCU\MB-T006-HT66F0185\[TEST08] TEST\3key.c"
 636  0017  1F00     R  	clr _alarm_second[0]
 637  0018              #line 637 "F:\HTMCU\MB-T006-HT66F0185\[TEST08] TEST\3key.c"
 637  0018  0700     R  	mov a,_uF2[0]
 637  0019  0080     E  	mov ra,a
 637  001A  3800     E  	snz ra.7
 637  001B  2800     R  	jmp _L318
 639  001C              #line 639 "F:\HTMCU\MB-T006-HT66F0185\[TEST08] TEST\3key.c"
 639  001C  1080     R  	sz _bbRam[0]
 639  001D  2800     R  	jmp _L318
 639  001E  3C00     R  	sz _uF3[0].0
 639  001F  2800     R  	jmp _L318
 641  0020              #line 641 "F:\HTMCU\MB-T006-HT66F0185\[TEST08] TEST\3key.c"
 641  0020  0F02        	mov a,2
 641  0021  0080     R  	mov _bbRam[0],a
 641  0022  0F14        	mov a,20
 641  0023  0080     R  	mov _bbTime[0],a
 641  0024  1F00     R  	clr _bbTime[1]
 641  0025  0F01        	mov a,1
 641  0026  0080     R  	mov _bbCnt[0],a
 641  0027              _L318:
 644  0027              #line 644 "F:\HTMCU\MB-T006-HT66F0185\[TEST08] TEST\3key.c"
 644  0027  0F14        	mov a,20
 644  0028  0680     E  	andm a,ra
 644  0029  1080     E  	sz ra
 644  002A  2800     R  	jmp _L319
 644  002B  0700     R  	mov a,_data[0]
 644  002C  0A06        	sub a,6
 644  002D  390A        	snz z
 644  002E  2800     R  	jmp _L320
 644  002F              _L319:
 646  002F              #line 646 "F:\HTMCU\MB-T006-HT66F0185\[TEST08] TEST\3key.c"
 646  002F  3400     R  	clr _uF2[0].7
 647  0030              #line 647 "F:\HTMCU\MB-T006-HT66F0185\[TEST08] TEST\3key.c"
 647  0030  1F00     R  	clr _data[0]
 648  0031              #line 648 "F:\HTMCU\MB-T006-HT66F0185\[TEST08] TEST\3key.c"
 648  0031  3400     R  	clr _uF3[0].0
 649  0032              #line 649 "F:\HTMCU\MB-T006-HT66F0185\[TEST08] TEST\3key.c"
 649  0032  1F00     R  	clr _bbRam[0]
文件：3key.c       编译器版本 HGASM 0202 页次26

 649  0033              _L320:
 651  0033              #line 651 "F:\HTMCU\MB-T006-HT66F0185\[TEST08] TEST\3key.c"
 651  0033  3C00     R  	sz _uF1[0].3
 651  0034  2800     R  	jmp _L362
 660  0035              #line 660 "F:\HTMCU\MB-T006-HT66F0185\[TEST08] TEST\3key.c"
 660  0035  0F10        	mov a,16
 660  0036  0080     R  	mov _num1[0],a
 661  0037              #line 661 "F:\HTMCU\MB-T006-HT66F0185\[TEST08] TEST\3key.c"
 661  0037  0F10        	mov a,16
 661  0038  0080     R  	mov _num2[0],a
 662  0039              #line 662 "F:\HTMCU\MB-T006-HT66F0185\[TEST08] TEST\3key.c"
 662  0039  0F10        	mov a,16
 662  003A  0080     R  	mov _num3[0],a
 662  003B  1F00     R  	clr _num3[1]
 663  003C              #line 663 "F:\HTMCU\MB-T006-HT66F0185\[TEST08] TEST\3key.c"
 663  003C  0F10        	mov a,16
 663  003D  0080     R  	mov _num4[0],a
 663  003E  1F00     R  	clr _num4[1]
 663  003F  2800     R  	jmp _L317
 663  0040              _L316:
 669  0040              #line 669 "F:\HTMCU\MB-T006-HT66F0185\[TEST08] TEST\3key.c"
 669  0040  0F05        	mov a,5
 669  0041  0200     R  	sub a,_data[0]
 669  0042  3C0A        	sz c
 669  0043  2800     R  	jmp _L322
 671  0044              #line 671 "F:\HTMCU\MB-T006-HT66F0185\[TEST08] TEST\3key.c"
 671  0044  0F01        	mov a,1
 671  0045  0080     R  	mov _data[0],a
 671  0046              _L322:
 673  0046              #line 673 "F:\HTMCU\MB-T006-HT66F0185\[TEST08] TEST\3key.c"
 673  0046  0700     R  	mov a,_data[0]
 673  0047  0A05        	sub a,5
 673  0048  390A        	snz z
 673  0049  2800     R  	jmp _L323
 675  004A              #line 675 "F:\HTMCU\MB-T006-HT66F0185\[TEST08] TEST\3key.c"
 675  004A  3000     R  	set _uF3[0].5
 676  004B              #line 676 "F:\HTMCU\MB-T006-HT66F0185\[TEST08] TEST\3key.c"
 676  004B  3000     R  	set _uF3[0].6
 676  004C              _L362:
 677  004C              #line 677 "F:\HTMCU\MB-T006-HT66F0185\[TEST08] TEST\3key.c"
 677  004C  0700     R  	mov a,_alarm_hour[0]  
 677  004D  0080     E  	mov _builtin_holtek_udivmodqi4_2[0],a
 677  004E  0F0A        	mov a,10  
 677  004F  0080     E  	mov _builtin_holtek_udivmodqi4_2[1],a
 677  0050  2000     E  	call _builtin_holtek_divmodqi4
 677  0051  0700     E  	mov a,_builtin_holtek_udivmodqi4_2[0]  
 677  0052  0080     R  	mov _num1[0],a
 678  0053              #line 678 "F:\HTMCU\MB-T006-HT66F0185\[TEST08] TEST\3key.c"
 678  0053  0700     R  	mov a,_alarm_hour[0]
 678  0054  0080     E  	mov _builtin_holtek_udivmodqi4_2[0],a
 678  0055  0F0A        	mov a,10
 678  0056  0080     E  	mov _builtin_holtek_udivmodqi4_2[1],a
 678  0057  2000     E  	call _builtin_holtek_divmodqi4
 678  0058  0700     E  	mov a,_builtin_holtek_udivmodqi4_2[2]
 678  0059  0080     R  	mov _num2[0],a
 679  005A              #line 679 "F:\HTMCU\MB-T006-HT66F0185\[TEST08] TEST\3key.c"
 679  005A  0700     R  	mov a,_alarm_min[0]  
 679  005B  0080     E  	mov _builtin_holtek_udivmodqi4_2[0],a
 679  005C  0F0A        	mov a,10  
 679  005D  0080     E  	mov _builtin_holtek_udivmodqi4_2[1],a
文件：3key.c       编译器版本 HGASM 0202 页次27

 679  005E  2000     E  	call _builtin_holtek_divmodqi4
 679  005F  0700     E  	mov a,_builtin_holtek_udivmodqi4_2[0]  
 679  0060  0080     E  	mov ra,a
 679  0061  0700     E  	mov a,ra
 679  0062  0080     R  	mov _num3[0],a
 679  0063  1F00     R  	clr _num3[1]
 679  0064  3F85        	sz acc.7
 679  0065  1F80     R  	set _num3[1]
 680  0066              #line 680 "F:\HTMCU\MB-T006-HT66F0185\[TEST08] TEST\3key.c"
 680  0066  0700     R  	mov a,_alarm_min[0]
 680  0067  0080     E  	mov _builtin_holtek_udivmodqi4_2[0],a
 680  0068  0F0A        	mov a,10
 680  0069  0080     E  	mov _builtin_holtek_udivmodqi4_2[1],a
 680  006A  2000     E  	call _builtin_holtek_divmodqi4
 680  006B  0700     E  	mov a,_builtin_holtek_udivmodqi4_2[2]
 680  006C  0080     E  	mov ra,a
 680  006D  0700     E  	mov a,ra
 680  006E  0080     R  	mov _num4[0],a
 680  006F  1F00     R  	clr _num4[1]
 680  0070  3F85        	sz acc.7
 680  0071  1F80     R  	set _num4[1]
 680  0072  2800     R  	jmp _L317
 680  0073              _L323:
 684  0073              #line 684 "F:\HTMCU\MB-T006-HT66F0185\[TEST08] TEST\3key.c"
 684  0073  3400     R  	clr _uF3[0].6
 685  0074              #line 685 "F:\HTMCU\MB-T006-HT66F0185\[TEST08] TEST\3key.c"
 685  0074  3400     R  	clr _uF3[0].5
 686  0075              #line 686 "F:\HTMCU\MB-T006-HT66F0185\[TEST08] TEST\3key.c"
 686  0075  0F3B        	mov a,59
 686  0076  0080     R  	mov _alarm_second[0],a
 687  0077              #line 687 "F:\HTMCU\MB-T006-HT66F0185\[TEST08] TEST\3key.c"
 687  0077  1F00     R  	clr _peking_second[0]
 687  0078              _L317:
 690  0078              #line 690 "F:\HTMCU\MB-T006-HT66F0185\[TEST08] TEST\3key.c"
 690  0078  0700     R  	mov a,_uF2[0]
 690  0079  0080     R  	mov _process_set_2[0],a
 690  007A  3800     R  	snz _process_set_2[0].0
 690  007B  2800     R  	jmp _L324
 692  007C              #line 692 "F:\HTMCU\MB-T006-HT66F0185\[TEST08] TEST\3key.c"
 692  007C  0F0A        	mov a,10
 692  007D  0200     R  	sub a,_t10s[0]
 692  007E  3C0A        	sz c
 692  007F  2800     R  	jmp _L326
 694  0080              #line 694 "F:\HTMCU\MB-T006-HT66F0185\[TEST08] TEST\3key.c"
 694  0080  1F00     R  	clr _t10s[0]
 695  0081              #line 695 "F:\HTMCU\MB-T006-HT66F0185\[TEST08] TEST\3key.c"
 695  0081  0700     R  	mov a,_data[0]
 695  0082  0A00        	sub a,0
 695  0083  3D0A        	sz z
 695  0084  2800     R  	jmp _L326
 695  0085  0A05        	sub a,(5)-(0)
 695  0086  3D0A        	sz z
 695  0087  2800     R  	jmp _L326
 697  0088              #line 697 "F:\HTMCU\MB-T006-HT66F0185\[TEST08] TEST\3key.c"
 697  0088  1080     R  	sz _alarm_hour[0]
 697  0089  2800     R  	jmp _L328
 697  008A  1080     R  	sz _alarm_min[0]
 697  008B  2800     R  	jmp _L328
 699  008C              #line 699 "F:\HTMCU\MB-T006-HT66F0185\[TEST08] TEST\3key.c"
 699  008C  1F00     R  	clr _data[0]
文件：3key.c       编译器版本 HGASM 0202 页次28

 699  008D  2800     R  	jmp _L326
 699  008E              _L328:
 703  008E              #line 703 "F:\HTMCU\MB-T006-HT66F0185\[TEST08] TEST\3key.c"
 703  008E  0F05        	mov a,5
 703  008F  0080     R  	mov _data[0],a
 703  0090  2800     R  	jmp _L326
 703  0091              _L324:
 710  0091              #line 710 "F:\HTMCU\MB-T006-HT66F0185\[TEST08] TEST\3key.c"
 710  0091  1F00     R  	clr _t10s[0]
 710  0092              _L326:
 712  0092              #line 712 "F:\HTMCU\MB-T006-HT66F0185\[TEST08] TEST\3key.c"
 712  0092  0700     R  	mov a,_data[0]
 712  0093  0080     R  	mov _process_set_2[1],a
 712  0094  0700     R  	mov a,_process_set_2[1]
 712  0095  0A00        	sub a,0
 712  0096  3D0A        	sz z
 712  0097  2800     R  	jmp _L330
 712  0098  0A01        	sub a,(1)-(0)
 712  0099  3D0A        	sz z
 712  009A  2800     R  	jmp _L331
 712  009B  0700     R  	mov a,_process_set_2[1]
 712  009C  0A02        	sub a,2
 712  009D  3D0A        	sz z
 712  009E  2800     R  	jmp _L332
 712  009F  0A01        	sub a,(3)-(2)
 712  00A0  3D0A        	sz z
 712  00A1  2800     R  	jmp _L333
 712  00A2  0700     R  	mov a,_process_set_2[1]
 712  00A3  0A04        	sub a,4
 712  00A4  390A        	snz z
 712  00A5  2800     R  	jmp _L312
 712  00A6  2800     R  	jmp _L365
 712  00A7              _L330:
 717  00A7              #line 717 "F:\HTMCU\MB-T006-HT66F0185\[TEST08] TEST\3key.c"
 717  00A7  3000     R  	set _uF3[0].6
 717  00A8  2800     R  	jmp _L335
 717  00A9              _L331:
 726  00A9              #line 726 "F:\HTMCU\MB-T006-HT66F0185\[TEST08] TEST\3key.c"
 726  00A9  3400     R  	clr _uF3[0].6
 727  00AA              #line 727 "F:\HTMCU\MB-T006-HT66F0185\[TEST08] TEST\3key.c"
 727  00AA  1F00     R  	clr _peking_second[0]
 728  00AB              #line 728 "F:\HTMCU\MB-T006-HT66F0185\[TEST08] TEST\3key.c"
 728  00AB  3800     R  	snz _uF1[0].3
 728  00AC  2800     R  	jmp _L335
 728  00AD  3C00     R  	sz _process_set_2[0].6
 728  00AE  2800     R  	jmp _L335
 730  00AF              #line 730 "F:\HTMCU\MB-T006-HT66F0185\[TEST08] TEST\3key.c"
 730  00AF  0F10        	mov a,16
 730  00B0  0080     R  	mov _num1[0],a
 731  00B1              #line 731 "F:\HTMCU\MB-T006-HT66F0185\[TEST08] TEST\3key.c"
 731  00B1  0F10        	mov a,16
 731  00B2  0080     R  	mov _num2[0],a
 731  00B3  2800     R  	jmp _L337
 731  00B4              _L335:
 736  00B4              #line 736 "F:\HTMCU\MB-T006-HT66F0185\[TEST08] TEST\3key.c"
 736  00B4  0700     R  	mov a,_peking_hour[0]  
 736  00B5  0080     E  	mov _builtin_holtek_udivmodqi4_2[0],a
 736  00B6  0F0A        	mov a,10  
 736  00B7  0080     E  	mov _builtin_holtek_udivmodqi4_2[1],a
 736  00B8  2000     E  	call _builtin_holtek_divmodqi4
文件：3key.c       编译器版本 HGASM 0202 页次29

 736  00B9  0700     E  	mov a,_builtin_holtek_udivmodqi4_2[0]  
 736  00BA  0080     R  	mov _num1[0],a
 737  00BB              #line 737 "F:\HTMCU\MB-T006-HT66F0185\[TEST08] TEST\3key.c"
 737  00BB  0700     R  	mov a,_peking_hour[0]
 737  00BC  0080     E  	mov _builtin_holtek_udivmodqi4_2[0],a
 737  00BD  0F0A        	mov a,10
 737  00BE  0080     E  	mov _builtin_holtek_udivmodqi4_2[1],a
 737  00BF  2000     E  	call _builtin_holtek_divmodqi4
 737  00C0  0700     E  	mov a,_builtin_holtek_udivmodqi4_2[2]
 737  00C1  0080     R  	mov _num2[0],a
 737  00C2  2800     R  	jmp _L337
 737  00C3              _L332:
 745  00C3              #line 745 "F:\HTMCU\MB-T006-HT66F0185\[TEST08] TEST\3key.c"
 745  00C3  0700     R  	mov a,_peking_hour[0]  
 745  00C4  0080     E  	mov _builtin_holtek_udivmodqi4_2[0],a
 745  00C5  0F0A        	mov a,10  
 745  00C6  0080     E  	mov _builtin_holtek_udivmodqi4_2[1],a
 745  00C7  2000     E  	call _builtin_holtek_divmodqi4
 745  00C8  0700     E  	mov a,_builtin_holtek_udivmodqi4_2[0]  
 745  00C9  0080     R  	mov _num1[0],a
 746  00CA              #line 746 "F:\HTMCU\MB-T006-HT66F0185\[TEST08] TEST\3key.c"
 746  00CA  0700     R  	mov a,_peking_hour[0]
 746  00CB  0080     E  	mov _builtin_holtek_udivmodqi4_2[0],a
 746  00CC  0F0A        	mov a,10
 746  00CD  0080     E  	mov _builtin_holtek_udivmodqi4_2[1],a
 746  00CE  2000     E  	call _builtin_holtek_divmodqi4
 746  00CF  0700     E  	mov a,_builtin_holtek_udivmodqi4_2[2]
 746  00D0  0080     R  	mov _num2[0],a
 747  00D1              #line 747 "F:\HTMCU\MB-T006-HT66F0185\[TEST08] TEST\3key.c"
 747  00D1  3800     R  	snz _uF1[0].3
 747  00D2  2800     R  	jmp _L337
 747  00D3  3800     R  	snz _process_set_2[0].6
 747  00D4  2800     R  	jmp _L364
 747  00D5              _L337:
 754  00D5              #line 754 "F:\HTMCU\MB-T006-HT66F0185\[TEST08] TEST\3key.c"
 754  00D5  0700     R  	mov a,_peking_min[0]  
 754  00D6  0080     E  	mov _builtin_holtek_udivmodqi4_2[0],a
 754  00D7  0F0A        	mov a,10  
 754  00D8  0080     E  	mov _builtin_holtek_udivmodqi4_2[1],a
 754  00D9  2000     E  	call _builtin_holtek_divmodqi4
 754  00DA  0700     E  	mov a,_builtin_holtek_udivmodqi4_2[0]  
 754  00DB  0080     E  	mov ra,a
 754  00DC  0700     E  	mov a,ra
 754  00DD  0080     R  	mov _num3[0],a
 754  00DE  1F00     R  	clr _num3[1]
 754  00DF  3F85        	sz acc.7
 754  00E0  1F80     R  	set _num3[1]
 755  00E1              #line 755 "F:\HTMCU\MB-T006-HT66F0185\[TEST08] TEST\3key.c"
 755  00E1  0700     R  	mov a,_peking_min[0]
 755  00E2  0080     E  	mov _builtin_holtek_udivmodqi4_2[0],a
 755  00E3  0F0A        	mov a,10
 755  00E4  0080     E  	mov _builtin_holtek_udivmodqi4_2[1],a
 755  00E5  2000     E  	call _builtin_holtek_divmodqi4
 755  00E6  0700     E  	mov a,_builtin_holtek_udivmodqi4_2[2]
 755  00E7  0080     E  	mov ra,a
 755  00E8  2800     R  	jmp _L363
 755  00E9              _L333:
 762  00E9              #line 762 "F:\HTMCU\MB-T006-HT66F0185\[TEST08] TEST\3key.c"
 762  00E9  3800     R  	snz _uF1[0].3
 762  00EA  2800     R  	jmp _L338
文件：3key.c       编译器版本 HGASM 0202 页次30

 762  00EB  3C00     R  	sz _process_set_2[0].6
 762  00EC  2800     R  	jmp _L338
 764  00ED              #line 764 "F:\HTMCU\MB-T006-HT66F0185\[TEST08] TEST\3key.c"
 764  00ED  0F10        	mov a,16
 764  00EE  0080     R  	mov _num1[0],a
 765  00EF              #line 765 "F:\HTMCU\MB-T006-HT66F0185\[TEST08] TEST\3key.c"
 765  00EF  0F10        	mov a,16
 765  00F0  0080     R  	mov _num2[0],a
 765  00F1  2800     R  	jmp _L340
 765  00F2              _L338:
 769  00F2              #line 769 "F:\HTMCU\MB-T006-HT66F0185\[TEST08] TEST\3key.c"
 769  00F2  0700     R  	mov a,_alarm_hour[0]  
 769  00F3  0080     E  	mov _builtin_holtek_udivmodqi4_2[0],a
 769  00F4  0F0A        	mov a,10  
 769  00F5  0080     E  	mov _builtin_holtek_udivmodqi4_2[1],a
 769  00F6  2000     E  	call _builtin_holtek_divmodqi4
 769  00F7  0700     E  	mov a,_builtin_holtek_udivmodqi4_2[0]  
 769  00F8  0080     R  	mov _num1[0],a
 770  00F9              #line 770 "F:\HTMCU\MB-T006-HT66F0185\[TEST08] TEST\3key.c"
 770  00F9  0700     R  	mov a,_alarm_hour[0]
 770  00FA  0080     E  	mov _builtin_holtek_udivmodqi4_2[0],a
 770  00FB  0F0A        	mov a,10
 770  00FC  0080     E  	mov _builtin_holtek_udivmodqi4_2[1],a
 770  00FD  2000     E  	call _builtin_holtek_divmodqi4
 770  00FE  0700     E  	mov a,_builtin_holtek_udivmodqi4_2[2]
 770  00FF  0080     R  	mov _num2[0],a
 770  0100  2800     R  	jmp _L340
 770  0101              _L365:
 777  0101              #line 777 "F:\HTMCU\MB-T006-HT66F0185\[TEST08] TEST\3key.c"
 777  0101  0700     R  	mov a,_alarm_hour[0]  
 777  0102  0080     E  	mov _builtin_holtek_udivmodqi4_2[0],a
 777  0103  0F0A        	mov a,10  
 777  0104  0080     E  	mov _builtin_holtek_udivmodqi4_2[1],a
 777  0105  2000     E  	call _builtin_holtek_divmodqi4
 777  0106  0700     E  	mov a,_builtin_holtek_udivmodqi4_2[0]  
 777  0107  0080     R  	mov _num1[0],a
 778  0108              #line 778 "F:\HTMCU\MB-T006-HT66F0185\[TEST08] TEST\3key.c"
 778  0108  0700     R  	mov a,_alarm_hour[0]
 778  0109  0080     E  	mov _builtin_holtek_udivmodqi4_2[0],a
 778  010A  0F0A        	mov a,10
 778  010B  0080     E  	mov _builtin_holtek_udivmodqi4_2[1],a
 778  010C  2000     E  	call _builtin_holtek_divmodqi4
 778  010D  0700     E  	mov a,_builtin_holtek_udivmodqi4_2[2]
 778  010E  0080     R  	mov _num2[0],a
 779  010F              #line 779 "F:\HTMCU\MB-T006-HT66F0185\[TEST08] TEST\3key.c"
 779  010F  3800     R  	snz _uF1[0].3
 779  0110  2800     R  	jmp _L340
 779  0111  3C00     R  	sz _process_set_2[0].6
 779  0112  2800     R  	jmp _L340
 779  0113              _L364:
 781  0113              #line 781 "F:\HTMCU\MB-T006-HT66F0185\[TEST08] TEST\3key.c"
 781  0113  0F10        	mov a,16
 781  0114  0080     R  	mov _num3[0],a
 781  0115  1F00     R  	clr _num3[1]
 782  0116              #line 782 "F:\HTMCU\MB-T006-HT66F0185\[TEST08] TEST\3key.c"
 782  0116  0F10        	mov a,16
 782  0117  0080     R  	mov _num4[0],a
 782  0118  1F00     R  	clr _num4[1]
 782  0119  2800     R  	jmp _L312
 782  011A              _L340:
文件：3key.c       编译器版本 HGASM 0202 页次31

 786  011A              #line 786 "F:\HTMCU\MB-T006-HT66F0185\[TEST08] TEST\3key.c"
 786  011A  0700     R  	mov a,_alarm_min[0]  
 786  011B  0080     E  	mov _builtin_holtek_udivmodqi4_2[0],a
 786  011C  0F0A        	mov a,10  
 786  011D  0080     E  	mov _builtin_holtek_udivmodqi4_2[1],a
 786  011E  2000     E  	call _builtin_holtek_divmodqi4
 786  011F  0700     E  	mov a,_builtin_holtek_udivmodqi4_2[0]  
 786  0120  0080     E  	mov ra,a
 786  0121  0700     E  	mov a,ra
 786  0122  0080     R  	mov _num3[0],a
 786  0123  1F00     R  	clr _num3[1]
 786  0124  3F85        	sz acc.7
 786  0125  1F80     R  	set _num3[1]
 787  0126              #line 787 "F:\HTMCU\MB-T006-HT66F0185\[TEST08] TEST\3key.c"
 787  0126  0700     R  	mov a,_alarm_min[0]
 787  0127  0080     E  	mov _builtin_holtek_udivmodqi4_2[0],a
 787  0128  0F0A        	mov a,10
 787  0129  0080     E  	mov _builtin_holtek_udivmodqi4_2[1],a
 787  012A  2000     E  	call _builtin_holtek_divmodqi4
 787  012B  0700     E  	mov a,_builtin_holtek_udivmodqi4_2[2]
 787  012C  0080     E  	mov ra,a
 787  012D              _L363:
 787  012D  0700     E  	mov a,ra
 787  012E  0080     R  	mov _num4[0],a
 787  012F  1F00     R  	clr _num4[1]
 787  0130  3F85        	sz acc.7
 787  0131  1F80     R  	set _num4[1]
 787  0132              _L312:
 787  0132  0003        	ret
 787  0133              _process_set endp
 787  0133              #line 787 "F:\HTMCU\MB-T006-HT66F0185\[TEST08] TEST\3key.c"
 787  0133              #pragma debug scope 1 1
 787  0133              public _test_mode
 787  0133              #pragma debug scope 16 1
 799  0133              #line 799 "F:\HTMCU\MB-T006-HT66F0185\[TEST08] TEST\3key.c"
 799  0000              _test_mode .section 'code'
 799  0000              _test_mode proc
 799  0000  00              local _test_mode_2 db 1 dup(?)	; 0,1
 800  0001              #line 800 "F:\HTMCU\MB-T006-HT66F0185\[TEST08] TEST\3key.c"
 800  0000  1F00     R  	clr _tms[0]
 800  0001  1F00     R  	clr _tms[1]
 801  0002              #line 801 "F:\HTMCU\MB-T006-HT66F0185\[TEST08] TEST\3key.c"
 801  0002  1F00     R  	clr _peking_second1[0]
 801  0003              _L380:
 804  0003              #line 804 "F:\HTMCU\MB-T006-HT66F0185\[TEST08] TEST\3key.c"
 804  0003              ;# 804 "F:\HTMCU\MB-T006-HT66F0185\[TEST08] TEST\3key.c" 1
 804  0003  0001        	clr wdt
 805  0004              #line 805 "F:\HTMCU\MB-T006-HT66F0185\[TEST08] TEST\3key.c"
 805  0004  2000     R  	call _key_scal
 806  0005              #line 806 "F:\HTMCU\MB-T006-HT66F0185\[TEST08] TEST\3key.c"
 806  0005  2000     R  	call _buz_beep
 807  0006              #line 807 "F:\HTMCU\MB-T006-HT66F0185\[TEST08] TEST\3key.c"
 807  0006  0F3B        	mov a,59
 807  0007  0200     R  	sub a,_peking_second1[0]
 807  0008  1185        	swap acc
 807  0009  040A        	xor a,status
 807  000A  3985        	snz acc.3
 807  000B  2800     R  	jmp _L368
 809  000C              #line 809 "F:\HTMCU\MB-T006-HT66F0185\[TEST08] TEST\3key.c"
 809  000C  1F00     R  	clr _peking_second1[0]
文件：3key.c       编译器版本 HGASM 0202 页次32

 810  000D              #line 810 "F:\HTMCU\MB-T006-HT66F0185\[TEST08] TEST\3key.c"
 810  000D  1480     R  	inc _peking_min1[0]
 812  000E              #line 812 "F:\HTMCU\MB-T006-HT66F0185\[TEST08] TEST\3key.c"
 812  000E  0F3B        	mov a,59
 812  000F  0200     R  	sub a,_peking_min1[0]
 812  0010  1185        	swap acc
 812  0011  040A        	xor a,status
 812  0012  3985        	snz acc.3
 812  0013  2800     R  	jmp _L368
 814  0014              #line 814 "F:\HTMCU\MB-T006-HT66F0185\[TEST08] TEST\3key.c"
 814  0014  1F00     R  	clr _peking_min1[0]
 814  0015              _L368:
 817  0015              #line 817 "F:\HTMCU\MB-T006-HT66F0185\[TEST08] TEST\3key.c"
 817  0015  3800     R  	snz _uF2[0].1
 817  0016  2800     R  	jmp _L371
 819  0017              #line 819 "F:\HTMCU\MB-T006-HT66F0185\[TEST08] TEST\3key.c"
 819  0017  3400     R  	clr _uF2[0].1
 820  0018              #line 820 "F:\HTMCU\MB-T006-HT66F0185\[TEST08] TEST\3key.c"
 820  0018  1480     R  	inc _data[0]
 821  0019              #line 821 "F:\HTMCU\MB-T006-HT66F0185\[TEST08] TEST\3key.c"
 821  0019  0F04        	mov a,4
 821  001A  0200     R  	sub a,_data[0]
 821  001B  3C0A        	sz c
 821  001C  2800     R  	jmp _L372
 823  001D              #line 823 "F:\HTMCU\MB-T006-HT66F0185\[TEST08] TEST\3key.c"
 823  001D  0F01        	mov a,1
 823  001E  0080     R  	mov _data[0],a
 823  001F              _L372:
 825  001F              #line 825 "F:\HTMCU\MB-T006-HT66F0185\[TEST08] TEST\3key.c"
 825  001F  0700     R  	mov a,_data[0]
 825  0020  0A03        	sub a,3
 825  0021  390A        	snz z
 825  0022  2800     R  	jmp _L371
 827  0023              #line 827 "F:\HTMCU\MB-T006-HT66F0185\[TEST08] TEST\3key.c"
 827  0023  0700     R  	mov a,_peking_second1[0]
 827  0024  0080     R  	mov _value[0],a
 827  0025              _L371:
 831  0025              #line 831 "F:\HTMCU\MB-T006-HT66F0185\[TEST08] TEST\3key.c"
 831  0025  0700     R  	mov a,_data[0]
 831  0026  0080     R  	mov _test_mode_2[0],a
 831  0027  0700     R  	mov a,_test_mode_2[0]
 831  0028  0A01        	sub a,1
 831  0029  3D0A        	sz z
 831  002A  2800     R  	jmp _L375
 831  002B  0A01        	sub a,(2)-(1)
 831  002C  3D0A        	sz z
 831  002D  2800     R  	jmp _L376
 831  002E  0700     R  	mov a,_test_mode_2[0]
 831  002F  0A03        	sub a,3
 831  0030  3D0A        	sz z
 831  0031  2800     R  	jmp _L377
 831  0032  0700     R  	mov a,_test_mode_2[0]
 831  0033  0A04        	sub a,4
 831  0034  390A        	snz z
 831  0035  2800     R  	jmp _L374
 881  0036              #line 881 "F:\HTMCU\MB-T006-HT66F0185\[TEST08] TEST\3key.c"
 881  0036  0700     R  	mov a,_peking_second1[0]  
 881  0037  0080     E  	mov _builtin_holtek_udivmodqi4_2[0],a
 881  0038  0F0A        	mov a,10  
 881  0039  0080     E  	mov _builtin_holtek_udivmodqi4_2[1],a
文件：3key.c       编译器版本 HGASM 0202 页次33

 881  003A  2000     E  	call _builtin_holtek_divmodqi4
 881  003B  0700     E  	mov a,_builtin_holtek_udivmodqi4_2[0]  
 881  003C  0080     E  	mov ra,a
 881  003D  0700     E  	mov a,ra
 881  003E  0080     R  	mov _num3[0],a
 881  003F  1F00     R  	clr _num3[1]
 881  0040  3F85        	sz acc.7
 881  0041  1F80     R  	set _num3[1]
 882  0042              #line 882 "F:\HTMCU\MB-T006-HT66F0185\[TEST08] TEST\3key.c"
 882  0042  0700     R  	mov a,_peking_second1[0]
 882  0043  0080     E  	mov _builtin_holtek_udivmodqi4_2[0],a
 882  0044  0F0A        	mov a,10
 882  0045  0080     E  	mov _builtin_holtek_udivmodqi4_2[1],a
 882  0046  2000     E  	call _builtin_holtek_divmodqi4
 882  0047  0700     E  	mov a,_builtin_holtek_udivmodqi4_2[2]
 882  0048  0080     E  	mov ra,a
 882  0049  0700     E  	mov a,ra
 882  004A  0080     R  	mov _num4[0],a
 882  004B  1F00     R  	clr _num4[1]
 882  004C  3F85        	sz acc.7
 882  004D  1F80     R  	set _num4[1]
 883  004E              #line 883 "F:\HTMCU\MB-T006-HT66F0185\[TEST08] TEST\3key.c"
 883  004E  0700     R  	mov a,_peking_min1[0]  
 883  004F  0080     E  	mov _builtin_holtek_udivmodqi4_2[0],a
 883  0050  0F0A        	mov a,10  
 883  0051  0080     E  	mov _builtin_holtek_udivmodqi4_2[1],a
 883  0052  2000     E  	call _builtin_holtek_divmodqi4
 883  0053  0700     E  	mov a,_builtin_holtek_udivmodqi4_2[0]  
 883  0054  0080     R  	mov _num1[0],a
 884  0055              #line 884 "F:\HTMCU\MB-T006-HT66F0185\[TEST08] TEST\3key.c"
 884  0055  0700     R  	mov a,_peking_min1[0]
 884  0056  0080     E  	mov _builtin_holtek_udivmodqi4_2[0],a
 884  0057  0F0A        	mov a,10
 884  0058  0080     E  	mov _builtin_holtek_udivmodqi4_2[1],a
 884  0059  2000     E  	call _builtin_holtek_divmodqi4
 884  005A  0700     E  	mov a,_builtin_holtek_udivmodqi4_2[2]
 884  005B  0080     R  	mov _num2[0],a
 885  005C              #line 885 "F:\HTMCU\MB-T006-HT66F0185\[TEST08] TEST\3key.c"
 885  005C  2800     R  	jmp _L374
 885  005D              _L375:
 835  005D              #line 835 "F:\HTMCU\MB-T006-HT66F0185\[TEST08] TEST\3key.c"
 835  005D  3000     R  	set _uF1[0].7
 836  005E              #line 836 "F:\HTMCU\MB-T006-HT66F0185\[TEST08] TEST\3key.c"
 836  005E  0700     R  	mov a,_peking_second1[0]  
 836  005F  0080     E  	mov _builtin_holtek_udivmodqi4_2[0],a
 836  0060  0F0A        	mov a,10  
 836  0061  0080     E  	mov _builtin_holtek_udivmodqi4_2[1],a
 836  0062  2000     E  	call _builtin_holtek_divmodqi4
 836  0063  0700     E  	mov a,_builtin_holtek_udivmodqi4_2[0]  
 836  0064  0080     R  	mov _num1[0],a
 837  0065              #line 837 "F:\HTMCU\MB-T006-HT66F0185\[TEST08] TEST\3key.c"
 837  0065  0700     R  	mov a,_peking_second1[0]
 837  0066  0080     E  	mov _builtin_holtek_udivmodqi4_2[0],a
 837  0067  0F0A        	mov a,10
 837  0068  0080     E  	mov _builtin_holtek_udivmodqi4_2[1],a
 837  0069  2000     E  	call _builtin_holtek_divmodqi4
 837  006A  0700     E  	mov a,_builtin_holtek_udivmodqi4_2[2]
 837  006B  0080     R  	mov _num2[0],a
 838  006C              #line 838 "F:\HTMCU\MB-T006-HT66F0185\[TEST08] TEST\3key.c"
 838  006C  1F00     E  	clr _builtin_holtek_udivmodhi4_2[6]
文件：3key.c       编译器版本 HGASM 0202 页次34

 838  006D  0700     R  	mov a,_tms[0]  
 838  006E  0080     E  	mov _builtin_holtek_udivmodhi4_2[0],a  
 838  006F  0700     R  	mov a,_tms[1]  
 838  0070  0080     E  	mov _builtin_holtek_udivmodhi4_2[1],a
 838  0071  0F0C        	mov a,12  
 838  0072  0080     E  	mov _builtin_holtek_udivmodhi4_2[2],a  
 838  0073  0F02        	mov a,2  
 838  0074  0080     E  	mov _builtin_holtek_udivmodhi4_2[3],a
 838  0075  2000     E  	call _builtin_holtek_udivmodhi4
 838  0076  0700     E  	mov a,_builtin_holtek_udivmodhi4_2[0]  
 838  0077  0080     R  	mov _num3[0],a  
 838  0078  0700     E  	mov a,_builtin_holtek_udivmodhi4_2[1]  
 838  0079  0080     R  	mov _num3[1],a
 839  007A              #line 839 "F:\HTMCU\MB-T006-HT66F0185\[TEST08] TEST\3key.c"
 839  007A  1F00     E  	clr _builtin_holtek_udivmodhi4_2[6]
 839  007B  0700     R  	mov a,_tms[0]  
 839  007C  0080     E  	mov _builtin_holtek_udivmodhi4_2[0],a  
 839  007D  0700     R  	mov a,_tms[1]  
 839  007E  0080     E  	mov _builtin_holtek_udivmodhi4_2[1],a
 839  007F  0F0C        	mov a,12  
 839  0080  0080     E  	mov _builtin_holtek_udivmodhi4_2[2],a  
 839  0081  0F02        	mov a,2  
 839  0082  0080     E  	mov _builtin_holtek_udivmodhi4_2[3],a
 839  0083  2000     E  	call _builtin_holtek_udivmodhi4
 839  0084  0700     E  	mov a,_builtin_holtek_udivmodhi4_2[0]  
 839  0085  0080     E  	mov rb,a  
 839  0086  0700     E  	mov a,_builtin_holtek_udivmodhi4_2[1]  
 839  0087  0080     E  	mov rc,a
 839  0088  0700     E  	mov a,rb  
 839  0089  0080     E  	mov _builtin_holtek_mulhi3_2[0],a  
 839  008A  0700     E  	mov a,rc  
 839  008B  0080     E  	mov _builtin_holtek_mulhi3_2[1],a
 839  008C  0F0C        	mov a,12  
 839  008D  0080     E  	mov _builtin_holtek_mulhi3_2[2],a  
 839  008E  0F02        	mov a,2  
 839  008F  0080     E  	mov _builtin_holtek_mulhi3_2[3],a
 839  0090  2000     E  	call _builtin_holtek_mulhi3
 839  0091  0700     E  	mov a,_builtin_holtek_mulhi3_2[4]  
 839  0092  0080     E  	mov rb,a  
 839  0093  0700     E  	mov a,_builtin_holtek_mulhi3_2[5]  
 839  0094  0080     E  	mov rc,a
 839  0095  0700     R  	mov a,_tms[0]
 839  0096  0280     E  	subm a,rb
 839  0097  0700     R  	mov a,_tms[1]
 839  0098  1280     E  	sbcm a,rc
 839  0099  1F00     E  	clr _builtin_holtek_udivmodhi4_2[6]
 839  009A  0700     E  	mov a,rb  
 839  009B  0080     E  	mov _builtin_holtek_udivmodhi4_2[0],a  
 839  009C  0700     E  	mov a,rc  
 839  009D  0080     E  	mov _builtin_holtek_udivmodhi4_2[1],a
 839  009E  0F34        	mov a,52  
 839  009F  0080     E  	mov _builtin_holtek_udivmodhi4_2[2],a  
 839  00A0  1F00     E  	clr _builtin_holtek_udivmodhi4_2[3]
 839  00A1  2000     E  	call _builtin_holtek_udivmodhi4
 839  00A2  0700     E  	mov a,_builtin_holtek_udivmodhi4_2[0]  
 839  00A3  0080     R  	mov _num4[0],a  
 839  00A4  0700     E  	mov a,_builtin_holtek_udivmodhi4_2[1]  
 839  00A5  0080     R  	mov _num4[1],a
 840  00A6              #line 840 "F:\HTMCU\MB-T006-HT66F0185\[TEST08] TEST\3key.c"
 840  00A6  2800     R  	jmp _L374
文件：3key.c       编译器版本 HGASM 0202 页次35

 840  00A7              _L376:
 844  00A7              #line 844 "F:\HTMCU\MB-T006-HT66F0185\[TEST08] TEST\3key.c"
 844  00A7  0700     R  	mov a,_peking_second1[0]
 844  00A8  0080     E  	mov _builtin_holtek_udivmodqi4_2[0],a
 844  00A9  0F0A        	mov a,10
 844  00AA  0080     E  	mov _builtin_holtek_udivmodqi4_2[1],a
 844  00AB  2000     E  	call _builtin_holtek_divmodqi4
 844  00AC  0700     E  	mov a,_builtin_holtek_udivmodqi4_2[2]
 844  00AD  0080     R  	mov _num1[0],a
 845  00AE              #line 845 "F:\HTMCU\MB-T006-HT66F0185\[TEST08] TEST\3key.c"
 845  00AE  0700     R  	mov a,_num1[0]
 845  00AF  0080     R  	mov _num2[0],a
 846  00B0              #line 846 "F:\HTMCU\MB-T006-HT66F0185\[TEST08] TEST\3key.c"
 846  00B0  0700     R  	mov a,_num1[0]
 846  00B1  0080     R  	mov _num3[0],a
 846  00B2  1F00     R  	clr _num3[1]
 847  00B3              #line 847 "F:\HTMCU\MB-T006-HT66F0185\[TEST08] TEST\3key.c"
 847  00B3  0700     R  	mov a,_num1[0]
 847  00B4  0080     R  	mov _num4[0],a
 847  00B5  1F00     R  	clr _num4[1]
 848  00B6              #line 848 "F:\HTMCU\MB-T006-HT66F0185\[TEST08] TEST\3key.c"
 848  00B6  2800     R  	jmp _L374
 848  00B7              _L377:
 851  00B7              #line 851 "F:\HTMCU\MB-T006-HT66F0185\[TEST08] TEST\3key.c"
 851  00B7  0700     R  	mov a,_value[0]
 851  00B8  0080     E  	mov _builtin_holtek_udivmodqi4_2[0],a
 851  00B9  0F0A        	mov a,10
 851  00BA  0080     E  	mov _builtin_holtek_udivmodqi4_2[1],a
 851  00BB  2000     E  	call _builtin_holtek_divmodqi4
 851  00BC  0700     E  	mov a,_builtin_holtek_udivmodqi4_2[2]
 851  00BD  0080     R  	mov _num1[0],a
 852  00BE              #line 852 "F:\HTMCU\MB-T006-HT66F0185\[TEST08] TEST\3key.c"
 852  00BE  0700     R  	mov a,_num1[0]
 852  00BF  0080     R  	mov _num2[0],a
 853  00C0              #line 853 "F:\HTMCU\MB-T006-HT66F0185\[TEST08] TEST\3key.c"
 853  00C0  0700     R  	mov a,_num1[0]
 853  00C1  0080     R  	mov _num3[0],a
 853  00C2  1F00     R  	clr _num3[1]
 854  00C3              #line 854 "F:\HTMCU\MB-T006-HT66F0185\[TEST08] TEST\3key.c"
 854  00C3  0700     R  	mov a,_num1[0]
 854  00C4  0080     R  	mov _num4[0],a
 854  00C5  1F00     R  	clr _num4[1]
 855  00C6              #line 855 "F:\HTMCU\MB-T006-HT66F0185\[TEST08] TEST\3key.c"
 855  00C6  3800     R  	snz _uF2[0].4
 855  00C7  2800     R  	jmp _L379
 857  00C8              #line 857 "F:\HTMCU\MB-T006-HT66F0185\[TEST08] TEST\3key.c"
 857  00C8  1080     R  	sz _bbRam[0]
 857  00C9  2800     R  	jmp _L374
 857  00CA  3C00     R  	sz _uF3[0].0
 857  00CB  2800     R  	jmp _L374
 859  00CC              #line 859 "F:\HTMCU\MB-T006-HT66F0185\[TEST08] TEST\3key.c"
 859  00CC  0F02        	mov a,2
 859  00CD  0080     R  	mov _bbRam[0],a
 859  00CE  0F14        	mov a,20
 859  00CF  0080     R  	mov _bbTime[0],a
 859  00D0  1F00     R  	clr _bbTime[1]
 859  00D1  0F01        	mov a,1
 859  00D2  0080     R  	mov _bbCnt[0],a
 859  00D3  2800     R  	jmp _L374
 859  00D4              _L379:
文件：3key.c       编译器版本 HGASM 0202 页次36

 864  00D4              #line 864 "F:\HTMCU\MB-T006-HT66F0185\[TEST08] TEST\3key.c"
 864  00D4  3400     R  	clr _uF3[0].0
 865  00D5              #line 865 "F:\HTMCU\MB-T006-HT66F0185\[TEST08] TEST\3key.c"
 865  00D5  1F00     R  	clr _bbRam[0]
 865  00D6              _L374:
 887  00D6              #line 887 "F:\HTMCU\MB-T006-HT66F0185\[TEST08] TEST\3key.c"
 887  00D6  0F00     R  	mov a,low offset _num
 887  00D7  0300     R  	add a,_num1[0]
 887  00D8  0083        	mov mp,a
 887  00D9  0F00     R  	mov a,high offset _num
 887  00DA  1F01        	clr sbp
 887  00DB  1381        	adcm a,sbp
 887  00DC  2000     E  	call _Crom2Prom
 887  00DD  0080     R  	mov _uF4[0],a
 888  00DE              #line 888 "F:\HTMCU\MB-T006-HT66F0185\[TEST08] TEST\3key.c"
 888  00DE  0F00     R  	mov a,low offset _num
 888  00DF  0300     R  	add a,_num2[0]
 888  00E0  0083        	mov mp,a
 888  00E1  0F00     R  	mov a,high offset _num
 888  00E2  1F01        	clr sbp
 888  00E3  1381        	adcm a,sbp
 888  00E4  2000     E  	call _Crom2Prom
 888  00E5  0080     R  	mov _uF5[0],a
 889  00E6              #line 889 "F:\HTMCU\MB-T006-HT66F0185\[TEST08] TEST\3key.c"
 889  00E6  0F00     R  	mov a,low offset _num
 889  00E7  0300     R  	add a,_num3[0]
 889  00E8  0083        	mov mp,a
 889  00E9  0F00     R  	mov a,high offset _num
 889  00EA  1300     R  	adc a,_num3[1]
 889  00EB  0081        	mov sbp,a
 889  00EC  2000     E  	call _Crom2Prom
 889  00ED  0080     R  	mov _uF6[0],a
 890  00EE              #line 890 "F:\HTMCU\MB-T006-HT66F0185\[TEST08] TEST\3key.c"
 890  00EE  0F00     R  	mov a,low offset _num
 890  00EF  0300     R  	add a,_num4[0]
 890  00F0  0083        	mov mp,a
 890  00F1  0F00     R  	mov a,high offset _num
 890  00F2  1300     R  	adc a,_num4[1]
 890  00F3  0081        	mov sbp,a
 890  00F4  2000     E  	call _Crom2Prom
 890  00F5  0080     R  	mov _uF7[0],a
 892  00F6              #line 892 "F:\HTMCU\MB-T006-HT66F0185\[TEST08] TEST\3key.c"
 892  00F6  2800     R  	jmp _L380
 892  00F7  0003        	ret
 892  00F8              _test_mode endp
 892  00F8              #line 892 "F:\HTMCU\MB-T006-HT66F0185\[TEST08] TEST\3key.c"
 892  00F8              #pragma debug scope 1 1
 892  00F8              public _main
 892  00F8              #pragma debug scope 17 1
 896  00F8              #line 896 "F:\HTMCU\MB-T006-HT66F0185\[TEST08] TEST\3key.c"
 896  00F8              IFDEF WITH_DEFAULT_STARTUP
 896  00F8              extern _main_initial0:near
 896  00F8              extern _main_startup:near
 896  00F8              ENDIF
 896  00F8              
 896  00F8              ROMBANK 0 @start
 896  0000              @start .section com_l 'code'
 896  0000              _main_startup1:
 896  0000              @start .section com_e 'code'
 896  0000  2800     R  	jmp _main
文件：3key.c       编译器版本 HGASM 0202 页次37

 896  0001              
 896  0000              _main .section 'code'
 896  0000              _main proc
 897  0000              #line 897 "F:\HTMCU\MB-T006-HT66F0185\[TEST08] TEST\3key.c"
 897  0000              ;# 897 "F:\HTMCU\MB-T006-HT66F0185\[TEST08] TEST\3key.c" 1
 897  0000              	IF 100>263690
 897  0000              ;# 897 "F:\HTMCU\MB-T006-HT66F0185\[TEST08] TEST\3key.c" 1
 897  0000              	ERRMESSAGE 'the value 100of the argument exceeds the maxinum 263690'
 897  0000              	ENDIF
 897  0000              ;# 897 "F:\HTMCU\MB-T006-HT66F0185\[TEST08] TEST\3key.c" 1
 897  0000              	IF 100<0
 897  0000              ;# 897 "F:\HTMCU\MB-T006-HT66F0185\[TEST08] TEST\3key.c" 1
 897  0000              	ERRMESSAGE 'the value 100 of the argument exceeds the mininum 0'
 897  0000              	ENDIF
 897  0000              ;# 897 "F:\HTMCU\MB-T006-HT66F0185\[TEST08] TEST\3key.c" 1
 897  0000              	IF 100==0
 897  0000              ;# 897 "F:\HTMCU\MB-T006-HT66F0185\[TEST08] TEST\3key.c" 1
 897  0000              	JMP $
 897  0000              	ENDIF
 897  0000              ;# 897 "F:\HTMCU\MB-T006-HT66F0185\[TEST08] TEST\3key.c" 1
 897  0000              	IF 100==1
 897  0000              ;# 897 "F:\HTMCU\MB-T006-HT66F0185\[TEST08] TEST\3key.c" 1
 897  0000              	NOP
 897  0000              	ENDIF
 897  0000              ;# 897 "F:\HTMCU\MB-T006-HT66F0185\[TEST08] TEST\3key.c" 1
 897  0000              	IF 100==2
 897  0000              ;# 897 "F:\HTMCU\MB-T006-HT66F0185\[TEST08] TEST\3key.c" 1
 897  0000              	NOP
 897  0000              ;# 897 "F:\HTMCU\MB-T006-HT66F0185\[TEST08] TEST\3key.c" 1
 897  0000              	NOP
 897  0000              	ENDIF
 897  0000              ;# 897 "F:\HTMCU\MB-T006-HT66F0185\[TEST08] TEST\3key.c" 1
 897  0000              	IF 100==3
 897  0000              ;# 897 "F:\HTMCU\MB-T006-HT66F0185\[TEST08] TEST\3key.c" 1
 897  0000              	NOP
 897  0000              ;# 897 "F:\HTMCU\MB-T006-HT66F0185\[TEST08] TEST\3key.c" 1
 897  0000              	NOP
 897  0000              ;# 897 "F:\HTMCU\MB-T006-HT66F0185\[TEST08] TEST\3key.c" 1
 897  0000              	NOP
 897  0000              	ENDIF
 897  0000              ;# 897 "F:\HTMCU\MB-T006-HT66F0185\[TEST08] TEST\3key.c" 1
 897  0000              	IF (100<8) AND (100>3)
 897  0000              ;# 897 "F:\HTMCU\MB-T006-HT66F0185\[TEST08] TEST\3key.c" 1
 897  0000              	CALL __DELAY3 + 7 -100
 897  0000              	ENDIF
 897  0000              ;# 897 "F:\HTMCU\MB-T006-HT66F0185\[TEST08] TEST\3key.c" 1
 897  0000              	IF (100< 0404h) AND (100>7)
 897  0000              ;# 897 "F:\HTMCU\MB-T006-HT66F0185\[TEST08] TEST\3key.c" 1
 897  0000  0F18        	MOV A,100/4-1
 897  0001              ;# 897 "F:\HTMCU\MB-T006-HT66F0185\[TEST08] TEST\3key.c" 1
 897  0001  2000     E  	CALL __DELAYX3 + 3 -(100 MOD 4)
 897  0002              	ENDIF
 897  0002              ;# 897 "F:\HTMCU\MB-T006-HT66F0185\[TEST08] TEST\3key.c" 1
 897  0002              	IF (100< 0x40B) AND (100> 0403h)
 897  0002              ;# 897 "F:\HTMCU\MB-T006-HT66F0185\[TEST08] TEST\3key.c" 1
 897  0002              	MOV A,0 
 897  0002              ;# 897 "F:\HTMCU\MB-T006-HT66F0185\[TEST08] TEST\3key.c" 1
 897  0002              	CALL __DELAYX6 + 0x40a -100
 897  0002              	ENDIF
 897  0002              ;# 897 "F:\HTMCU\MB-T006-HT66F0185\[TEST08] TEST\3key.c" 1
文件：3key.c       编译器版本 HGASM 0202 页次38

 897  0002              	IF (100 >= 0x40b) AND ((((100-9)%0402h)/4+1)>256)
 897  0002              ;# 897 "F:\HTMCU\MB-T006-HT66F0185\[TEST08] TEST\3key.c" 1
 897  0002              	MOV A,(100-9)/0402h
 897  0002              ;# 897 "F:\HTMCU\MB-T006-HT66F0185\[TEST08] TEST\3key.c" 1
 897  0002              	MOV _builtin_holtek_delay_2,A
 897  0002              ;# 897 "F:\HTMCU\MB-T006-HT66F0185\[TEST08] TEST\3key.c" 1
 897  0002              	MOV A,0
 897  0002              ;# 897 "F:\HTMCU\MB-T006-HT66F0185\[TEST08] TEST\3key.c" 1
 897  0002              	CALL __DELAYY5 +5- (((100-9)%0402h)%6)
 897  0002              	ENDIF
 897  0002              ;# 897 "F:\HTMCU\MB-T006-HT66F0185\[TEST08] TEST\3key.c" 1
 897  0002              	IF (100 >= 0x40b) AND ((((100-9)%0402h)/4+1)<=256)
 897  0002              ;# 897 "F:\HTMCU\MB-T006-HT66F0185\[TEST08] TEST\3key.c" 1
 897  0002              	MOV A,(100-9)/0402h
 897  0002              ;# 897 "F:\HTMCU\MB-T006-HT66F0185\[TEST08] TEST\3key.c" 1
 897  0002              	MOV _builtin_holtek_delay_2,A
 897  0002              ;# 897 "F:\HTMCU\MB-T006-HT66F0185\[TEST08] TEST\3key.c" 1
 897  0002              	MOV A,((100-9)%0402h)/4+1
 897  0002              ;# 897 "F:\HTMCU\MB-T006-HT66F0185\[TEST08] TEST\3key.c" 1
 897  0002              	CALL __DELAYY3 +3-(((100-9)%0402h)%4)
 897  0002              	ENDIF
 899  0002              #line 899 "F:\HTMCU\MB-T006-HT66F0185\[TEST08] TEST\3key.c"
 899  0002  2000     R  	call _Init_clock
 901  0003              #line 901 "F:\HTMCU\MB-T006-HT66F0185\[TEST08] TEST\3key.c"
 901  0003  1F00     R  	clr _GPIOA_INIT_2[2]
 901  0004  1F00     R  	clr _GPIOA_INIT_2[1]
 901  0005  1F00     R  	clr _GPIOA_INIT_2[0]
 901  0006  0FFF        	mov a,255
 901  0007  2000     R  	call _GPIOA_INIT
 902  0008              #line 902 "F:\HTMCU\MB-T006-HT66F0185\[TEST08] TEST\3key.c"
 902  0008  1F00     R  	clr _GPIOB_INIT_2[1]
 902  0009  1F00     R  	clr _GPIOB_INIT_2[0]
 902  000A  0FFF        	mov a,255
 902  000B  2000     R  	call _GPIOB_INIT
 903  000C              #line 903 "F:\HTMCU\MB-T006-HT66F0185\[TEST08] TEST\3key.c"
 903  000C  0F01        	mov a,1
 903  000D  0080     R  	mov _GPIOC_INIT_2[1],a
 903  000E  1F00     R  	clr _GPIOC_INIT_2[0]
 903  000F  0FFF        	mov a,255
 903  0010  2000     R  	call _GPIOC_INIT
 904  0011              #line 904 "F:\HTMCU\MB-T006-HT66F0185\[TEST08] TEST\3key.c"
 904  0011  1F00     R  	clr _GPIOD_INIT_2[1]
 904  0012  1F00     R  	clr _GPIOD_INIT_2[0]
 904  0013  0FFF        	mov a,255
 904  0014  2000     R  	call _GPIOD_INIT
 906  0015              #line 906 "F:\HTMCU\MB-T006-HT66F0185\[TEST08] TEST\3key.c"
 906  0015  0F01        	mov a,1
 906  0016  0080     R  	mov _GPIOA_INIT_2[2],a
 906  0017  1F00     R  	clr _GPIOA_INIT_2[1]
 906  0018  1F00     R  	clr _GPIOA_INIT_2[0]
 906  0019  0F02        	mov a,2
 906  001A  2000     R  	call _GPIOA_INIT
 908  001B              #line 908 "F:\HTMCU\MB-T006-HT66F0185\[TEST08] TEST\3key.c"
 908  001B  1F00     R  	clr _GPIOB_INIT_2[1]
 908  001C  0F01        	mov a,1
 908  001D  0080     R  	mov _GPIOB_INIT_2[0],a
 908  001E  0F10        	mov a,16
 908  001F  2000     R  	call _GPIOB_INIT
 909  0020              #line 909 "F:\HTMCU\MB-T006-HT66F0185\[TEST08] TEST\3key.c"
 909  0020  1F00     R  	clr _GPIOB_INIT_2[1]
文件：3key.c       编译器版本 HGASM 0202 页次39

 909  0021  0F01        	mov a,1
 909  0022  0080     R  	mov _GPIOB_INIT_2[0],a
 909  0023  0F08        	mov a,8
 909  0024  2000     R  	call _GPIOB_INIT
 910  0025              #line 910 "F:\HTMCU\MB-T006-HT66F0185\[TEST08] TEST\3key.c"
 910  0025  1F00     R  	clr _GPIOB_INIT_2[1]
 910  0026  0F01        	mov a,1
 910  0027  0080     R  	mov _GPIOB_INIT_2[0],a
 910  0028  0F04        	mov a,4
 910  0029  2000     R  	call _GPIOB_INIT
 912  002A              #line 912 "F:\HTMCU\MB-T006-HT66F0185\[TEST08] TEST\3key.c"
 912  002A  3794        	clr [20].7
 913  002B              #line 913 "F:\HTMCU\MB-T006-HT66F0185\[TEST08] TEST\3key.c"
 913  002B  3400     R  	clr _uF3[0].0
 914  002C              #line 914 "F:\HTMCU\MB-T006-HT66F0185\[TEST08] TEST\3key.c"
 914  002C  1F00     R  	clr _bbRam[0]
 915  002D              #line 915 "F:\HTMCU\MB-T006-HT66F0185\[TEST08] TEST\3key.c"
 915  002D  0F01        	mov a,1
 915  002E  0080     R  	mov _data[0],a
 919  002F              #line 919 "F:\HTMCU\MB-T006-HT66F0185\[TEST08] TEST\3key.c"
 919  002F              ;# 919 "F:\HTMCU\MB-T006-HT66F0185\[TEST08] TEST\3key.c" 1
 919  002F  0001        	clr wdt
 920  0030              #line 920 "F:\HTMCU\MB-T006-HT66F0185\[TEST08] TEST\3key.c"
 920  0030  2000     R  	call _test_mode
 920  0031  2800     R  	jmp $
 920  0032              _main endp
 920  0032              
 920  0032              @dummy endp
 920  0032              
 920  0032              #line 920 "F:\HTMCU\MB-T006-HT66F0185\[TEST08] TEST\3key.c"
 920  0032              #pragma debug scope 1 1
 920  0000              @crom	.section 'crom'

 225  0000              #line 225 "F:\HTMCU\MB-T006-HT66F0185\[TEST08] TEST\init.h"
 225  0000              @crom	.section	'crom'
 225  0000              _num:
 225  0000              #pragma debug array 42 8 21 1
 225  0000              #pragma debug array 42 8 21 1
 225  0000              #pragma debug variable 42 1 _num "num"
 225  0000              	db 63
 225  0001              	db 6
 225  0001              	db 91
 225  0002              	db 79
 225  0002              	db 102
 225  0003              	db 109
 225  0003              	db 125
 225  0004              	db 7
 225  0004              	db 127
 225  0005              	db 111
 225  0005              	db 119
 225  0006              	db 124
 225  0006              	db 57
 225  0007              	db 94
 225  0007              	db 121
 225  0008              	db 113
 225  0008              	db 0
 225  0009              	db 2
 225  0009              	db 4
 225  000A              	db 16
 225  000A              	db 32
文件：init.h       编译器版本 HGASM 0202 页次40

 210  000B              #line 210 "F:\HTMCU\MB-T006-HT66F0185\[TEST08] TEST\init.h"
 210  000B              public _bBbSound
 210  0000              @HCCINIT0 .section 'data'
 210  0000              _bBbSound	db 0
 210  0001              #pragma debug variable 7 1 _bBbSound "bBbSound"
 210  0001              
 210  0000              @HCCINIT .section 'data'
 209  0000              #line 209 "F:\HTMCU\MB-T006-HT66F0185\[TEST08] TEST\init.h"
 209  0000              public _bbCnt
 209  0001              @HCCINIT0 .section 'data'
 209  0001              _bbCnt	db 0
 209  0002              #pragma debug variable 8 1 _bbCnt "bbCnt"
 209  0002              
 209  0000              @HCCINIT .section 'data'
 208  0000              #line 208 "F:\HTMCU\MB-T006-HT66F0185\[TEST08] TEST\init.h"
 208  0000              public _bbTime
 208  0002              @HCCINIT0 .section 'data'
 208  0002  0002[       _bbTime	db 2 dup(0)
            00
            ]
 208  0004              #pragma debug variable 12 1 _bbTime "bbTime"
 208  0004              
 208  0000              @HCCINIT .section 'data'
 207  0000              #line 207 "F:\HTMCU\MB-T006-HT66F0185\[TEST08] TEST\init.h"
 207  0000              public _bbRam
 207  0004              @HCCINIT0 .section 'data'
 207  0004              _bbRam	db 0
 207  0005              #pragma debug variable 8 1 _bbRam "bbRam"
 207  0005              
 207  0000              @HCCINIT .section 'data'
 203  0000              #line 203 "F:\HTMCU\MB-T006-HT66F0185\[TEST08] TEST\init.h"
 203  0000              public _num4
 203  0005              @HCCINIT0 .section 'data'
 203  0005  0002[       _num4	db 2 dup(0)
            00
            ]
 203  0007              #pragma debug variable 12 1 _num4 "num4"
 203  0007              
 203  0000              @HCCINIT .section 'data'
 202  0000              #line 202 "F:\HTMCU\MB-T006-HT66F0185\[TEST08] TEST\init.h"
 202  0000              public _num3
 202  0007              @HCCINIT0 .section 'data'
 202  0007  0002[       _num3	db 2 dup(0)
            00
            ]
 202  0009              #pragma debug variable 12 1 _num3 "num3"
 202  0009              
 202  0000              @HCCINIT .section 'data'
 202  0000              public _num2
 202  0000              @HCCINIT	.section 'data'
 201  0000              #line 201 "F:\HTMCU\MB-T006-HT66F0185\[TEST08] TEST\init.h"
 201  0000              @HCCINIT .section 'data'
 201  0000              _num2 label byte
 201  0000              #pragma debug variable 8 1 _num2 "num2"
 201  0000              	db 2
 201  0000              @ROMDATA_BASE .section inpage 'code'
 201  0000              	db 2
 201  0001              @HCCINIT .section 'data'
 201  0001              public _num1
 200  0001              #line 200 "F:\HTMCU\MB-T006-HT66F0185\[TEST08] TEST\init.h"
文件：init.h       编译器版本 HGASM 0202 页次41

 200  0001              @HCCINIT .section 'data'
 200  0001              _num1 label byte
 200  0001              #pragma debug variable 8 1 _num1 "num1"
 200  0001              	db 1
 200  0001              @ROMDATA_BASE .section inpage 'code'
 200  0001              	db 1
 200  0002              @HCCINIT .section 'data'
 198  0002              #line 198 "F:\HTMCU\MB-T006-HT66F0185\[TEST08] TEST\init.h"
 198  0002              public _wei
 198  0009              @HCCINIT0 .section 'data'
 198  0009              _wei	db 0
 198  000A              #pragma debug variable 8 1 _wei "wei"
 198  000A              
 198  0002              @HCCINIT .section 'data'
 196  0002              #line 196 "F:\HTMCU\MB-T006-HT66F0185\[TEST08] TEST\init.h"
 196  0002              public _sum1
 196  000A              @HCCINIT0 .section 'data'
 196  000A  0002[       _sum1	db 2 dup(0)
            00
            ]
 196  000C              #pragma debug variable 12 1 _sum1 "sum1"
 196  000C              
 196  0002              @HCCINIT .section 'data'
 195  0002              #line 195 "F:\HTMCU\MB-T006-HT66F0185\[TEST08] TEST\init.h"
 195  0002              public _sum
 195  000C              @HCCINIT0 .section 'data'
 195  000C  0002[       _sum	db 2 dup(0)
            00
            ]
 195  000E              #pragma debug variable 12 1 _sum "sum"
 195  000E              
 195  0002              @HCCINIT .section 'data'
 193  0002              #line 193 "F:\HTMCU\MB-T006-HT66F0185\[TEST08] TEST\init.h"
 193  0002              public _value
 193  000E              @HCCINIT0 .section 'data'
 193  000E              _value	db 0
 193  000F              #pragma debug variable 7 1 _value "value"
 193  000F              
 193  0002              @HCCINIT .section 'data'
 192  0002              #line 192 "F:\HTMCU\MB-T006-HT66F0185\[TEST08] TEST\init.h"
 192  0002              public _keystep
 192  000F              @HCCINIT0 .section 'data'
 192  000F              _keystep	db 0
 192  0010              #pragma debug variable 8 1 _keystep "keystep"
 192  0010              
 192  0002              @HCCINIT .section 'data'
 191  0002              #line 191 "F:\HTMCU\MB-T006-HT66F0185\[TEST08] TEST\init.h"
 191  0002              public _step3
 191  0010              @HCCINIT0 .section 'data'
 191  0010              _step3	db 0
 191  0011              #pragma debug variable 8 1 _step3 "step3"
 191  0011              
 191  0002              @HCCINIT .section 'data'
 190  0002              #line 190 "F:\HTMCU\MB-T006-HT66F0185\[TEST08] TEST\init.h"
 190  0002              public _step2
 190  0011              @HCCINIT0 .section 'data'
 190  0011              _step2	db 0
 190  0012              #pragma debug variable 8 1 _step2 "step2"
 190  0012              
 190  0002              @HCCINIT .section 'data'
文件：init.h       编译器版本 HGASM 0202 页次42

 189  0002              #line 189 "F:\HTMCU\MB-T006-HT66F0185\[TEST08] TEST\init.h"
 189  0002              public _step1
 189  0012              @HCCINIT0 .section 'data'
 189  0012              _step1	db 0
 189  0013              #pragma debug variable 8 1 _step1 "step1"
 189  0013              
 189  0002              @HCCINIT .section 'data'
 188  0002              #line 188 "F:\HTMCU\MB-T006-HT66F0185\[TEST08] TEST\init.h"
 188  0002              public _step
 188  0013              @HCCINIT0 .section 'data'
 188  0013              _step	db 0
 188  0014              #pragma debug variable 8 1 _step "step"
 188  0014              
 188  0002              @HCCINIT .section 'data'
 187  0002              #line 187 "F:\HTMCU\MB-T006-HT66F0185\[TEST08] TEST\init.h"
 187  0002              public _data
 187  0014              @HCCINIT0 .section 'data'
 187  0014              _data	db 0
 187  0015              #pragma debug variable 8 1 _data "data"
 187  0015              
 187  0002              @HCCINIT .section 'data'
 185  0002              #line 185 "F:\HTMCU\MB-T006-HT66F0185\[TEST08] TEST\init.h"
 185  0002              public _t2s
 185  0015              @HCCINIT0 .section 'data'
 185  0015              _t2s	db 0
 185  0016              #pragma debug variable 8 1 _t2s "t2s"
 185  0016              
 185  0002              @HCCINIT .section 'data'
 184  0002              #line 184 "F:\HTMCU\MB-T006-HT66F0185\[TEST08] TEST\init.h"
 184  0002              public _t10s
 184  0016              @HCCINIT0 .section 'data'
 184  0016              _t10s	db 0
 184  0017              #pragma debug variable 8 1 _t10s "t10s"
 184  0017              
 184  0002              @HCCINIT .section 'data'
 183  0002              #line 183 "F:\HTMCU\MB-T006-HT66F0185\[TEST08] TEST\init.h"
 183  0002              public _tms4
 183  0017              @HCCINIT0 .section 'data'
 183  0017              _tms4	db 0
 183  0018              #pragma debug variable 8 1 _tms4 "tms4"
 183  0018              
 183  0002              @HCCINIT .section 'data'
 182  0002              #line 182 "F:\HTMCU\MB-T006-HT66F0185\[TEST08] TEST\init.h"
 182  0002              public _tms3
 182  0018              @HCCINIT0 .section 'data'
 182  0018              _tms3	db 0
 182  0019              #pragma debug variable 8 1 _tms3 "tms3"
 182  0019              
 182  0002              @HCCINIT .section 'data'
 181  0002              #line 181 "F:\HTMCU\MB-T006-HT66F0185\[TEST08] TEST\init.h"
 181  0002              public _tms2
 181  0019              @HCCINIT0 .section 'data'
 181  0019              _tms2	db 0
 181  001A              #pragma debug variable 8 1 _tms2 "tms2"
 181  001A              
 181  0002              @HCCINIT .section 'data'
 180  0002              #line 180 "F:\HTMCU\MB-T006-HT66F0185\[TEST08] TEST\init.h"
 180  0002              public _tms1
 180  001A              @HCCINIT0 .section 'data'
 180  001A              _tms1	db 0
文件：init.h       编译器版本 HGASM 0202 页次43

 180  001B              #pragma debug variable 8 1 _tms1 "tms1"
 180  001B              
 180  0002              @HCCINIT .section 'data'
 179  0002              #line 179 "F:\HTMCU\MB-T006-HT66F0185\[TEST08] TEST\init.h"
 179  0002              public _tms
 179  001B              @HCCINIT0 .section 'data'
 179  001B  0002[       _tms	db 2 dup(0)
            00
            ]
 179  001D              #pragma debug variable 12 1 _tms "tms"
 179  001D              
 179  0002              @HCCINIT .section 'data'
 176  0002              #line 176 "F:\HTMCU\MB-T006-HT66F0185\[TEST08] TEST\init.h"
 176  0002              public _bj_second
 176  001D              @HCCINIT0 .section 'data'
 176  001D              _bj_second	db 0
 176  001E              #pragma debug variable 7 1 _bj_second "bj_second"
 176  001E              
 176  0002              @HCCINIT .section 'data'
 175  0002              #line 175 "F:\HTMCU\MB-T006-HT66F0185\[TEST08] TEST\init.h"
 175  0002              public _bj_min
 175  001E              @HCCINIT0 .section 'data'
 175  001E              _bj_min	db 0
 175  001F              #pragma debug variable 7 1 _bj_min "bj_min"
 175  001F              
 175  0002              @HCCINIT .section 'data'
 173  0002              #line 173 "F:\HTMCU\MB-T006-HT66F0185\[TEST08] TEST\init.h"
 173  0002              public _peking_min1
 173  001F              @HCCINIT0 .section 'data'
 173  001F              _peking_min1	db 0
 173  0020              #pragma debug variable 7 1 _peking_min1 "peking_min1"
 173  0020              
 173  0002              @HCCINIT .section 'data'
 172  0002              #line 172 "F:\HTMCU\MB-T006-HT66F0185\[TEST08] TEST\init.h"
 172  0002              public _peking_second1
 172  0020              @HCCINIT0 .section 'data'
 172  0020              _peking_second1	db 0
 172  0021              #pragma debug variable 7 1 _peking_second1 "peking_second1"
 172  0021              
 172  0002              @HCCINIT .section 'data'
 170  0002              #line 170 "F:\HTMCU\MB-T006-HT66F0185\[TEST08] TEST\init.h"
 170  0002              public _peking_second
 170  0021              @HCCINIT0 .section 'data'
 170  0021              _peking_second	db 0
 170  0022              #pragma debug variable 7 1 _peking_second "peking_second"
 170  0022              
 170  0002              @HCCINIT .section 'data'
 169  0002              #line 169 "F:\HTMCU\MB-T006-HT66F0185\[TEST08] TEST\init.h"
 169  0002              public _peking_min
 169  0022              @HCCINIT0 .section 'data'
 169  0022              _peking_min	db 0
 169  0023              #pragma debug variable 7 1 _peking_min "peking_min"
 169  0023              
 169  0002              @HCCINIT .section 'data'
 168  0002              #line 168 "F:\HTMCU\MB-T006-HT66F0185\[TEST08] TEST\init.h"
 168  0002              public _peking_hour
 168  0023              @HCCINIT0 .section 'data'
 168  0023              _peking_hour	db 0
 168  0024              #pragma debug variable 7 1 _peking_hour "peking_hour"
 168  0024              
文件：init.h       编译器版本 HGASM 0202 页次44

 168  0002              @HCCINIT .section 'data'
 166  0002              #line 166 "F:\HTMCU\MB-T006-HT66F0185\[TEST08] TEST\init.h"
 166  0002              public _alarm_second
 166  0024              @HCCINIT0 .section 'data'
 166  0024              _alarm_second	db 0
 166  0025              #pragma debug variable 7 1 _alarm_second "alarm_second"
 166  0025              
 166  0002              @HCCINIT .section 'data'
 165  0002              #line 165 "F:\HTMCU\MB-T006-HT66F0185\[TEST08] TEST\init.h"
 165  0002              public _alarm_min
 165  0025              @HCCINIT0 .section 'data'
 165  0025              _alarm_min	db 0
 165  0026              #pragma debug variable 7 1 _alarm_min "alarm_min"
 165  0026              
 165  0002              @HCCINIT .section 'data'
 164  0002              #line 164 "F:\HTMCU\MB-T006-HT66F0185\[TEST08] TEST\init.h"
 164  0002              public _alarm_hour
 164  0026              @HCCINIT0 .section 'data'
 164  0026              _alarm_hour	db 0
 164  0027              #pragma debug variable 7 1 _alarm_hour "alarm_hour"
 164  0027              
 164  0002              @HCCINIT .section 'data'
  65  0002              #line 65 "F:\HTMCU\MB-T006-HT66F0185\[TEST08] TEST\init.h"
  65  0002              public _uF8
  65  0027              @HCCINIT0 .section 'data'
  65  0027              _uF8	db 0
  65  0028              #pragma debug struct_end
  65  0028              #pragma debug struct_end
  65  0028              #pragma debug union_end
  65  0028              #pragma debug union_end
  65  0028              #pragma debug variable 44 1 _uF8 "uF8"
  65  0028              
  65  0002              @HCCINIT .section 'data'
  65  0002              #line 65 "F:\HTMCU\MB-T006-HT66F0185\[TEST08] TEST\init.h"
  65  0002              public _uF7
  65  0028              @HCCINIT0 .section 'data'
  65  0028              _uF7	db 0
  65  0029              #pragma debug variable 44 1 _uF7 "uF7"
  65  0029              
  65  0002              @HCCINIT .section 'data'
  65  0002              #line 65 "F:\HTMCU\MB-T006-HT66F0185\[TEST08] TEST\init.h"
  65  0002              public _uF6
  65  0029              @HCCINIT0 .section 'data'
  65  0029              _uF6	db 0
  65  002A              #pragma debug variable 44 1 _uF6 "uF6"
  65  002A              
  65  0002              @HCCINIT .section 'data'
  65  0002              #line 65 "F:\HTMCU\MB-T006-HT66F0185\[TEST08] TEST\init.h"
  65  0002              public _uF5
  65  002A              @HCCINIT0 .section 'data'
  65  002A              _uF5	db 0
  65  002B              #pragma debug variable 44 1 _uF5 "uF5"
  65  002B              
  65  0002              @HCCINIT .section 'data'
  65  0002              #line 65 "F:\HTMCU\MB-T006-HT66F0185\[TEST08] TEST\init.h"
  65  0002              public _uF4
  65  002B              @HCCINIT0 .section 'data'
  65  002B              _uF4	db 0
  65  002C              #pragma debug variable 44 1 _uF4 "uF4"
  65  002C              
文件：init.h       编译器版本 HGASM 0202 页次45

  65  0002              @HCCINIT .section 'data'
  65  0002              #line 65 "F:\HTMCU\MB-T006-HT66F0185\[TEST08] TEST\init.h"
  65  0002              public _uF3
  65  002C              @HCCINIT0 .section 'data'
  65  002C              _uF3	db 0
  65  002D              #pragma debug variable 44 1 _uF3 "uF3"
  65  002D              
  65  0002              @HCCINIT .section 'data'
  65  0002              #line 65 "F:\HTMCU\MB-T006-HT66F0185\[TEST08] TEST\init.h"
  65  0002              public _uF2
  65  002D              @HCCINIT0 .section 'data'
  65  002D              _uF2	db 0
  65  002E              #pragma debug variable 44 1 _uF2 "uF2"
  65  002E              
  65  0002              @HCCINIT .section 'data'
  65  0002              #line 65 "F:\HTMCU\MB-T006-HT66F0185\[TEST08] TEST\init.h"
  65  0002              public _uF1
  65  002E              @HCCINIT0 .section 'data'
  65  002E              _uF1	db 0
  65  002F              #pragma debug variable 44 1 _uF1 "uF1"
  65  002F              
  65  0002              @HCCINIT .section 'data'
  65  0002              #pragma debug variable 8 1 ___mp1 "__mp1" 1
  65  0002              #pragma debug struct_end
  65  0002              #pragma debug struct_end
  65  0002              #pragma debug union_end
  65  0002              #pragma debug union_end
  65  0002              #pragma debug variable 46 1 ___bp "__bp" 1
  65  0002              #pragma debug struct_end
  65  0002              #pragma debug struct_end
  65  0002              #pragma debug union_end
  65  0002              #pragma debug union_end
  65  0002              #pragma debug variable 48 1 ___smod "__smod" 1
  65  0002              #pragma debug struct_end
  65  0002              #pragma debug struct_end
  65  0002              #pragma debug union_end
  65  0002              #pragma debug union_end
  65  0002              #pragma debug variable 50 1 ___integ "__integ" 1
  65  0002              #pragma debug struct_end
  65  0002              #pragma debug struct_end
  65  0002              #pragma debug union_end
  65  0002              #pragma debug union_end
  65  0002              #pragma debug variable 52 1 ___intc0 "__intc0" 1
  65  0002              #pragma debug struct_end
  65  0002              #pragma debug struct_end
  65  0002              #pragma debug union_end
  65  0002              #pragma debug union_end
  65  0002              #pragma debug variable 54 1 ___intc1 "__intc1" 1
  65  0002              #pragma debug struct_end
  65  0002              #pragma debug struct_end
  65  0002              #pragma debug union_end
  65  0002              #pragma debug union_end
  65  0002              #pragma debug variable 56 1 ___mfi0 "__mfi0" 1
  65  0002              #pragma debug struct_end
  65  0002              #pragma debug struct_end
  65  0002              #pragma debug union_end
  65  0002              #pragma debug union_end
  65  0002              #pragma debug variable 58 1 ___pa "__pa" 1
  65  0002              #pragma debug struct_end
  65  0002              #pragma debug struct_end
文件：init.h       编译器版本 HGASM 0202 页次46

  65  0002              #pragma debug union_end
  65  0002              #pragma debug union_end
  65  0002              #pragma debug variable 60 1 ___pac "__pac" 1
  65  0002              #pragma debug struct_end
  65  0002              #pragma debug struct_end
  65  0002              #pragma debug union_end
  65  0002              #pragma debug union_end
  65  0002              #pragma debug variable 62 1 ___papu "__papu" 1
  65  0002              #pragma debug struct_end
  65  0002              #pragma debug struct_end
  65  0002              #pragma debug union_end
  65  0002              #pragma debug union_end
  65  0002              #pragma debug variable 64 1 ___tmpc "__tmpc" 1
  65  0002              #pragma debug struct_end
  65  0002              #pragma debug struct_end
  65  0002              #pragma debug union_end
  65  0002              #pragma debug union_end
  65  0002              #pragma debug variable 66 1 ___wdtc "__wdtc" 1
  65  0002              #pragma debug struct_end
  65  0002              #pragma debug struct_end
  65  0002              #pragma debug union_end
  65  0002              #pragma debug union_end
  65  0002              #pragma debug variable 68 1 ___tbc "__tbc" 1
  65  0002              #pragma debug struct_end
  65  0002              #pragma debug struct_end
  65  0002              #pragma debug union_end
  65  0002              #pragma debug union_end
  65  0002              #pragma debug variable 70 1 ___pb "__pb" 1
  65  0002              #pragma debug struct_end
  65  0002              #pragma debug struct_end
  65  0002              #pragma debug union_end
  65  0002              #pragma debug union_end
  65  0002              #pragma debug variable 72 1 ___pbc "__pbc" 1
  65  0002              #pragma debug struct_end
  65  0002              #pragma debug struct_end
  65  0002              #pragma debug union_end
  65  0002              #pragma debug union_end
  65  0002              #pragma debug variable 74 1 ___pbpu "__pbpu" 1
  65  0002              #pragma debug struct_end
  65  0002              #pragma debug struct_end
  65  0002              #pragma debug union_end
  65  0002              #pragma debug union_end
  65  0002              #pragma debug variable 76 1 ___tm0c0 "__tm0c0" 1
  65  0002              #pragma debug struct_end
  65  0002              #pragma debug struct_end
  65  0002              #pragma debug union_end
  65  0002              #pragma debug union_end
  65  0002              #pragma debug variable 78 1 ___tm0c1 "__tm0c1" 1
  65  0002              #pragma debug variable 8 1 ___tm0al "__tm0al" 1
  65  0002              #pragma debug variable 8 1 ___tm0ah "__tm0ah" 1
  65  0002              #pragma debug struct_end
  65  0002              #pragma debug struct_end
  65  0002              #pragma debug union_end
  65  0002              #pragma debug union_end
  65  0002              #pragma debug variable 80 1 ___cpc "__cpc" 1
  65  0002              #pragma debug struct_end
  65  0002              #pragma debug struct_end
  65  0002              #pragma debug union_end
  65  0002              #pragma debug union_end
  65  0002              #pragma debug variable 82 1 ___pc "__pc" 1
文件：init.h       编译器版本 HGASM 0202 页次47

  65  0002              #pragma debug struct_end
  65  0002              #pragma debug struct_end
  65  0002              #pragma debug union_end
  65  0002              #pragma debug union_end
  65  0002              #pragma debug variable 84 1 ___pcc "__pcc" 1
  65  0002              #pragma debug struct_end
  65  0002              #pragma debug struct_end
  65  0002              #pragma debug union_end
  65  0002              #pragma debug union_end
  65  0002              #pragma debug variable 86 1 ___pcpu "__pcpu" 1
  65  0002              #pragma debug struct_end
  65  0002              #pragma debug struct_end
  65  0002              #pragma debug union_end
  65  0002              #pragma debug union_end
  65  0002              #pragma debug variable 88 1 ___acerl "__acerl" 1
  65  0002              #pragma debug struct_end
  65  0002              #pragma debug struct_end
  65  0002              #pragma debug union_end
  65  0002              #pragma debug union_end
  65  0002              #pragma debug variable 90 1 ___slcdc0 "__slcdc0" 1
  65  0002              #pragma debug struct_end
  65  0002              #pragma debug struct_end
  65  0002              #pragma debug union_end
  65  0002              #pragma debug union_end
  65  0002              #pragma debug variable 92 1 ___slcdc1 "__slcdc1" 1
  65  0002              #pragma debug struct_end
  65  0002              #pragma debug struct_end
  65  0002              #pragma debug union_end
  65  0002              #pragma debug union_end
  65  0002              #pragma debug variable 94 1 ___slcdc2 "__slcdc2" 1
  65  0002              #pragma debug struct_end
  65  0002              #pragma debug struct_end
  65  0002              #pragma debug union_end
  65  0002              #pragma debug union_end
  65  0002              #pragma debug variable 96 1 ___slcdc3 "__slcdc3" 1
  65  0002              #pragma debug struct_end
  65  0002              #pragma debug struct_end
  65  0002              #pragma debug union_end
  65  0002              #pragma debug union_end
  65  0002              #pragma debug variable 98 1 ___slcdc4 "__slcdc4" 1
  65  0002              #pragma debug struct_end
  65  0002              #pragma debug struct_end
  65  0002              #pragma debug union_end
  65  0002              #pragma debug union_end
  65  0002              #pragma debug variable 100 1 ___pd "__pd" 1
  65  0002              #pragma debug struct_end
  65  0002              #pragma debug struct_end
  65  0002              #pragma debug union_end
  65  0002              #pragma debug union_end
  65  0002              #pragma debug variable 102 1 ___pdc "__pdc" 1
  65  0002              #pragma debug struct_end
  65  0002              #pragma debug struct_end
  65  0002              #pragma debug union_end
  65  0002              #pragma debug union_end
  65  0002              #pragma debug variable 104 1 ___pdpu "__pdpu" 1
  65  0002              #pragma debug variable 8 1 ___iar1 "__iar1" 1
  65  0002              extern r1:byte
  65  0002              extern r2:byte

 896  0002              #line 896 "F:\HTMCU\MB-T006-HT66F0185\[TEST08] TEST\3key.c"
文件：3key.c       编译器版本 HGASM 0202 页次48

 896  0000              @code .section at 0 'code'
 896  0000  2800     R  	jmp _main_startup1
 896  0001              
 896  0001              extern _builtin_holtek_divmodqi4:near
 896  0001              extern _builtin_holtek_udivmodqi4_2:byte
 896  0001              extern _builtin_holtek_udivmodqi4:near
 896  0001              extern _builtin_holtek_udivmodhi4_2:byte
 896  0001              extern _builtin_holtek_udivmodhi4:near
 896  0001              extern _builtin_holtek_mulhi3_2:byte
 896  0001              extern _builtin_holtek_mulhi3:near
 896  0001              
 896  0001              ; 
 896  0001              ; Generated by holtek-gcc v3.17, Tue Aug 22 19:18:19 2017
 896  0001              ; Rebuild 307
 896  0001              ; end of file


        0 Errors, 0