文件：3key.c       编译器版本 HGASM 0202 页次1


   1  0000              ; Generated by holtek-gcc v3.19, Fri Dec 31 18:25:50 2021
   2  0000              ; 
   3  0000              ; Configuration:
   4  0000              ;       without long instruction
   5  0000              ;       Single ROM, Multi-RAM
   6  0000              ;       bits_per_rom_unit:16
   7  0000              ;       with mp1
   8  0000              ;       with tbhp, address(0x9)
   9  0000              ;          Use tabrd-const
  10  0000              ;       
  11  0000              ;       
  12  0000              ;       
  13  0000              ; use 'tabrdc' instead of 'tabrd'
  14  0000              ;       
  15  0000              
  16  0000              #pragma translator "holtek-gcc 4.6.4" "3.19" "build 20130711"
  17  0000              ; Rebuild 718
  18  0000              
  19  0000              ir equ [2]
  20  0000              mp equ [3]
  21  0000              sbp equ [1]
  22  0000              acc equ [5]
  23  0000              bp equ [4]
  24  0000              tblp equ [7]
  25  0000              tbhp equ [9]
  26  0000              status equ [10]
  27  0000              c equ [10].0
  28  0000              ac equ [10].1
  29  0000              z equ [10].2
  30  0000              ov equ [10].3
  31  0000              intc equ [11]
  32  0000              
  33  0000              extern ra:byte
  34  0000              extern rb:byte
  35  0000              extern rc:byte
  36  0000              extern rd:byte
  37  0000              extern re:byte
  38  0000              extern rf:byte
  39  0000              extern rg:byte
  40  0000              extern rh:byte
  41  0000              extern _Crom2Prom:near
  42  0000              extern _Crom2PromNext:near
  43  0000              
  44  0000              RAMBANK 0 @HCCINIT, @HCCINIT0
  45  0000              
  46  0000              RAMBANK 0 @BITDATASEC, @BITDATASEC1
  47  0000              @HCCINIT	.section 'data'
  48  0000              @HCCINIT0	.section 'data'
  49  0000              @BITDATASEC	 .section 'data'
  50  0000              @BITDATASEC1	 .section 'data'
  51  0000              
  52  0000              #pragma debug scope 1 1
  53  0000              	extern __DELAY3:near
  54  0000              	extern __DELAYX3:near
  55  0000              	extern __DELAYX6:near
  56  0000              	extern __DELAYY5:near
  57  0000              	extern __DELAYY3:near
  58  0000              	extern _builtin_holtek_delay_2:byte
  59  0000              ___pac equ [21]
文件：3key.ASM     编译器版本 HGASM 0202 页次2

  60  0000              ___papu equ [22]
  61  0000              ___pa equ [20]
  62  0000              public _GPIOA_INIT
  63  0000              #pragma debug scope 2 1

   6  0000              #line 6 "e:\demo_20211221\ht66f0185开发板资料\[2] source code\[test01] led_1\3key.c"
   6  0000              _GPIOA_INIT .section 'code'
   6  0000              _GPIOA_INIT proc
   6  0000              public _GPIOA_INIT_2
   6  0000  0004[           local _GPIOA_INIT_2 db 4 dup(?)	; 3,1
            00
            ]
   6  0000  0080     R  	mov _GPIOA_INIT_2[3],a
   6  0001              #pragma debug variable 8 2 _GPIOA_INIT_2+3 "GPIO_Pin"
   6  0001              #pragma debug variable 8 2 _GPIOA_INIT_2+0 "GPIO_Mode"
   6  0001              #pragma debug variable 8 2 _GPIOA_INIT_2+1 "wakeup"
   6  0001              #pragma debug variable 8 2 _GPIOA_INIT_2+2 "GPIO_BitVal"
   7  0001              #line 7 "e:\demo_20211221\ht66f0185开发板资料\[2] source code\[test01] led_1\3key.c"
   7  0001  1700     R  	sdza _GPIOA_INIT_2[0]
   7  0002  2800     R  	jmp _L2
   9  0003              #line 9 "e:\demo_20211221\ht66f0185开发板资料\[2] source code\[test01] led_1\3key.c"
   9  0003  0700     R  	mov a,_GPIOA_INIT_2[3]
   9  0004  0595        	orm a,[21]
  10  0005              #line 10 "e:\demo_20211221\ht66f0185开发板资料\[2] source code\[test01] led_1\3key.c"
  10  0005  0700     R  	mov a,_GPIOA_INIT_2[3]
  10  0006  0596        	orm a,[22]
  10  0007  2800     R  	jmp _L3
  10  0008              _L2:
  14  0008              #line 14 "e:\demo_20211221\ht66f0185开发板资料\[2] source code\[test01] led_1\3key.c"
  14  0008  0100     R  	cpla _GPIOA_INIT_2[3]
  14  0009  0080     E  	mov ra,a
  14  000A  0700     E  	mov a,ra
  14  000B  0695        	andm a,[21]
  15  000C              #line 15 "e:\demo_20211221\ht66f0185开发板资料\[2] source code\[test01] led_1\3key.c"
  15  000C  0700     E  	mov a,ra
  15  000D  0696        	andm a,[22]
  15  000E              _L3:
  18  000E              #line 18 "e:\demo_20211221\ht66f0185开发板资料\[2] source code\[test01] led_1\3key.c"
  18  000E  1080     R  	sz _GPIOA_INIT_2[2]
  18  000F  2800     R  	jmp _LI1
  18  0010  2800     R  	jmp _L4
  18  0011              _LI1:
  20  0011              #line 20 "e:\demo_20211221\ht66f0185开发板资料\[2] source code\[test01] led_1\3key.c"
  20  0011  0700     R  	mov a,_GPIOA_INIT_2[3]
  20  0012  0594        	orm a,[20]
  20  0013  2800     R  	jmp _L1
  20  0014              _L4:
  20  0014              #pragma debug scope 3 2
  20  0014              ;begin block, line: 20.-1
  20  0014              #pragma debug scope 4 3
  20  0014              ;begin block, line: 20.-1
  24  0014              #line 24 "e:\demo_20211221\ht66f0185开发板资料\[2] source code\[test01] led_1\3key.c"
  24  0014  0100     R  	cpla _GPIOA_INIT_2[3]
  24  0015  0080     E  	mov ra,a
  24  0016  0700     E  	mov a,ra
  24  0017  0694        	andm a,[20]
  24  0018              _L1:
  24  0018              #pragma debug scope 3 2
  24  0018              #pragma debug scope 2 1
  24  0018  0003        	ret
文件：3key.c       编译器版本 HGASM 0202 页次3

  24  0019              _GPIOA_INIT endp
  24  0019              #line 24 "e:\demo_20211221\ht66f0185开发板资料\[2] source code\[test01] led_1\3key.c"
  24  0019              #pragma debug scope 1 1
  24  0019              ___pbc equ [38]
  24  0019              ___pbpu equ [39]
  24  0019              ___pb equ [37]
  24  0019              public _GPIOB_INIT
  24  0019              #pragma debug scope 5 1
  30  0019              #line 30 "e:\demo_20211221\ht66f0185开发板资料\[2] source code\[test01] led_1\3key.c"
  30  0000              _GPIOB_INIT .section 'code'
  30  0000              _GPIOB_INIT proc
  30  0000              public _GPIOB_INIT_2
  30  0000  0003[           local _GPIOB_INIT_2 db 3 dup(?)	; 2,1
            00
            ]
  30  0000  0080     R  	mov _GPIOB_INIT_2[2],a
  30  0001              #pragma debug variable 8 5 _GPIOB_INIT_2+2 "GPIO_Pin"
  30  0001              #pragma debug variable 8 5 _GPIOB_INIT_2+0 "GPIO_Mode"
  30  0001              #pragma debug variable 8 5 _GPIOB_INIT_2+1 "GPIO_BitVal"
  32  0001              #line 32 "e:\demo_20211221\ht66f0185开发板资料\[2] source code\[test01] led_1\3key.c"
  32  0001  1700     R  	sdza _GPIOB_INIT_2[0]
  32  0002  2800     R  	jmp _L8
  34  0003              #line 34 "e:\demo_20211221\ht66f0185开发板资料\[2] source code\[test01] led_1\3key.c"
  34  0003  0700     R  	mov a,_GPIOB_INIT_2[2]
  34  0004  05A6        	orm a,[38]
  35  0005              #line 35 "e:\demo_20211221\ht66f0185开发板资料\[2] source code\[test01] led_1\3key.c"
  35  0005  0700     R  	mov a,_GPIOB_INIT_2[2]
  35  0006  05A7        	orm a,[39]
  35  0007  2800     R  	jmp _L9
  35  0008              _L8:
  39  0008              #line 39 "e:\demo_20211221\ht66f0185开发板资料\[2] source code\[test01] led_1\3key.c"
  39  0008  0100     R  	cpla _GPIOB_INIT_2[2]
  39  0009  0080     E  	mov ra,a
  39  000A  0700     E  	mov a,ra
  39  000B  06A6        	andm a,[38]
  40  000C              #line 40 "e:\demo_20211221\ht66f0185开发板资料\[2] source code\[test01] led_1\3key.c"
  40  000C  0700     E  	mov a,ra
  40  000D  06A7        	andm a,[39]
  40  000E              _L9:
  43  000E              #line 43 "e:\demo_20211221\ht66f0185开发板资料\[2] source code\[test01] led_1\3key.c"
  43  000E  1080     R  	sz _GPIOB_INIT_2[1]
  43  000F  2800     R  	jmp _LI2
  43  0010  2800     R  	jmp _L10
  43  0011              _LI2:
  45  0011              #line 45 "e:\demo_20211221\ht66f0185开发板资料\[2] source code\[test01] led_1\3key.c"
  45  0011  0700     R  	mov a,_GPIOB_INIT_2[2]
  45  0012  05A5        	orm a,[37]
  45  0013  2800     R  	jmp _L7
  45  0014              _L10:
  45  0014              #pragma debug scope 6 5
  45  0014              ;begin block, line: 45.-1
  45  0014              #pragma debug scope 7 6
  45  0014              ;begin block, line: 45.-1
  49  0014              #line 49 "e:\demo_20211221\ht66f0185开发板资料\[2] source code\[test01] led_1\3key.c"
  49  0014  0100     R  	cpla _GPIOB_INIT_2[2]
  49  0015  0080     E  	mov ra,a
  49  0016  0700     E  	mov a,ra
  49  0017  06A5        	andm a,[37]
  49  0018              _L7:
  49  0018              #pragma debug scope 6 5
文件：3key.c       编译器版本 HGASM 0202 页次4

  49  0018              #pragma debug scope 5 1
  49  0018  0003        	ret
  49  0019              _GPIOB_INIT endp
  49  0019              #line 49 "e:\demo_20211221\ht66f0185开发板资料\[2] source code\[test01] led_1\3key.c"
  49  0019              #pragma debug scope 1 1
  49  0019              ___pcc equ [66]
  49  0019              ___pcpu equ [67]
  49  0019              ___pc equ [65]
  49  0019              public _GPIOC_INIT
  49  0019              #pragma debug scope 8 1
  54  0019              #line 54 "e:\demo_20211221\ht66f0185开发板资料\[2] source code\[test01] led_1\3key.c"
  54  0000              _GPIOC_INIT .section 'code'
  54  0000              _GPIOC_INIT proc
  54  0000              public _GPIOC_INIT_2
  54  0000  0003[           local _GPIOC_INIT_2 db 3 dup(?)	; 2,1
            00
            ]
  54  0000  0080     R  	mov _GPIOC_INIT_2[2],a
  54  0001              #pragma debug variable 8 8 _GPIOC_INIT_2+2 "GPIO_Pin"
  54  0001              #pragma debug variable 8 8 _GPIOC_INIT_2+0 "GPIO_Mode"
  54  0001              #pragma debug variable 8 8 _GPIOC_INIT_2+1 "GPIO_BitVal"
  56  0001              #line 56 "e:\demo_20211221\ht66f0185开发板资料\[2] source code\[test01] led_1\3key.c"
  56  0001  1700     R  	sdza _GPIOC_INIT_2[0]
  56  0002  2800     R  	jmp _L13
  58  0003              #line 58 "e:\demo_20211221\ht66f0185开发板资料\[2] source code\[test01] led_1\3key.c"
  58  0003  0700     R  	mov a,_GPIOC_INIT_2[2]
  58  0004  05C2        	orm a,[66]
  59  0005              #line 59 "e:\demo_20211221\ht66f0185开发板资料\[2] source code\[test01] led_1\3key.c"
  59  0005  0700     R  	mov a,_GPIOC_INIT_2[2]
  59  0006  05C3        	orm a,[67]
  59  0007  2800     R  	jmp _L14
  59  0008              _L13:
  63  0008              #line 63 "e:\demo_20211221\ht66f0185开发板资料\[2] source code\[test01] led_1\3key.c"
  63  0008  0100     R  	cpla _GPIOC_INIT_2[2]
  63  0009  0080     E  	mov ra,a
  63  000A  0700     E  	mov a,ra
  63  000B  06C2        	andm a,[66]
  64  000C              #line 64 "e:\demo_20211221\ht66f0185开发板资料\[2] source code\[test01] led_1\3key.c"
  64  000C  0700     E  	mov a,ra
  64  000D  06C3        	andm a,[67]
  64  000E              _L14:
  67  000E              #line 67 "e:\demo_20211221\ht66f0185开发板资料\[2] source code\[test01] led_1\3key.c"
  67  000E  1080     R  	sz _GPIOC_INIT_2[1]
  67  000F  2800     R  	jmp _LI3
  67  0010  2800     R  	jmp _L15
  67  0011              _LI3:
  69  0011              #line 69 "e:\demo_20211221\ht66f0185开发板资料\[2] source code\[test01] led_1\3key.c"
  69  0011  0700     R  	mov a,_GPIOC_INIT_2[2]
  69  0012  05C1        	orm a,[65]
  69  0013  2800     R  	jmp _L12
  69  0014              _L15:
  73  0014              #line 73 "e:\demo_20211221\ht66f0185开发板资料\[2] source code\[test01] led_1\3key.c"
  73  0014  0100     R  	cpla _GPIOC_INIT_2[2]
  73  0015  0080     E  	mov ra,a
  73  0016  0700     E  	mov a,ra
  73  0017  06C1        	andm a,[65]
  73  0018              _L12:
  73  0018  0003        	ret
  73  0019              _GPIOC_INIT endp
  73  0019              #line 73 "e:\demo_20211221\ht66f0185开发板资料\[2] source code\[test01] led_1\3key.c"
文件：3key.c       编译器版本 HGASM 0202 页次5

  73  0019              #pragma debug scope 1 1
  73  0019              ___pdc equ [83]
  73  0019              ___pdpu equ [84]
  73  0019              ___pd equ [82]
  73  0019              public _GPIOD_INIT
  73  0019              #pragma debug scope 9 1
  79  0019              #line 79 "e:\demo_20211221\ht66f0185开发板资料\[2] source code\[test01] led_1\3key.c"
  79  0000              _GPIOD_INIT .section 'code'
  79  0000              _GPIOD_INIT proc
  79  0000              public _GPIOD_INIT_2
  79  0000  0003[           local _GPIOD_INIT_2 db 3 dup(?)	; 2,1
            00
            ]
  79  0000  0080     R  	mov _GPIOD_INIT_2[2],a
  79  0001              #pragma debug variable 8 9 _GPIOD_INIT_2+2 "GPIO_Pin"
  79  0001              #pragma debug variable 8 9 _GPIOD_INIT_2+0 "GPIO_Mode"
  79  0001              #pragma debug variable 8 9 _GPIOD_INIT_2+1 "GPIO_BitVal"
  81  0001              #line 81 "e:\demo_20211221\ht66f0185开发板资料\[2] source code\[test01] led_1\3key.c"
  81  0001  1700     R  	sdza _GPIOD_INIT_2[0]
  81  0002  2800     R  	jmp _L18
  83  0003              #line 83 "e:\demo_20211221\ht66f0185开发板资料\[2] source code\[test01] led_1\3key.c"
  83  0003  0700     R  	mov a,_GPIOD_INIT_2[2]
  83  0004  05D3        	orm a,[83]
  84  0005              #line 84 "e:\demo_20211221\ht66f0185开发板资料\[2] source code\[test01] led_1\3key.c"
  84  0005  0700     R  	mov a,_GPIOD_INIT_2[2]
  84  0006  05D4        	orm a,[84]
  84  0007  2800     R  	jmp _L19
  84  0008              _L18:
  88  0008              #line 88 "e:\demo_20211221\ht66f0185开发板资料\[2] source code\[test01] led_1\3key.c"
  88  0008  0100     R  	cpla _GPIOD_INIT_2[2]
  88  0009  0080     E  	mov ra,a
  88  000A  0700     E  	mov a,ra
  88  000B  06D3        	andm a,[83]
  89  000C              #line 89 "e:\demo_20211221\ht66f0185开发板资料\[2] source code\[test01] led_1\3key.c"
  89  000C  0700     E  	mov a,ra
  89  000D  06D4        	andm a,[84]
  89  000E              _L19:
  92  000E              #line 92 "e:\demo_20211221\ht66f0185开发板资料\[2] source code\[test01] led_1\3key.c"
  92  000E  1080     R  	sz _GPIOD_INIT_2[1]
  92  000F  2800     R  	jmp _LI4
  92  0010  2800     R  	jmp _L20
  92  0011              _LI4:
  94  0011              #line 94 "e:\demo_20211221\ht66f0185开发板资料\[2] source code\[test01] led_1\3key.c"
  94  0011  0700     R  	mov a,_GPIOD_INIT_2[2]
  94  0012  05D2        	orm a,[82]
  94  0013  2800     R  	jmp _L17
  94  0014              _L20:
  98  0014              #line 98 "e:\demo_20211221\ht66f0185开发板资料\[2] source code\[test01] led_1\3key.c"
  98  0014  0100     R  	cpla _GPIOD_INIT_2[2]
  98  0015  0080     E  	mov ra,a
  98  0016  0700     E  	mov a,ra
  98  0017  06D2        	andm a,[82]
  98  0018              _L17:
  98  0018  0003        	ret
  98  0019              _GPIOD_INIT endp
  98  0019              #line 98 "e:\demo_20211221\ht66f0185开发板资料\[2] source code\[test01] led_1\3key.c"
  98  0019              #pragma debug scope 1 1
  98  0019              ___bp equ [4]
  98  0019              ___mp1 equ [3]
  98  0019              ___iar1 equ [2]
文件：3key.c       编译器版本 HGASM 0202 页次6

  98  0019              public _clr_ram_en
  98  0019              #pragma debug scope 10 1
 104  0019              #line 104 "e:\demo_20211221\ht66f0185开发板资料\[2] source code\[test01] led_1\3key.c"
 104  0000              _clr_ram_en .section 'code'
 104  0000              _clr_ram_en proc
 104  0000  00              local _clr_ram_en_2 db 1 dup(?)	; 0,1
 104  0000  0080     E  	mov ra,a
 104  0001  0080     R  	mov _clr_ram_en_2[0],a
 104  0002              #pragma debug variable 8 10 _clr_ram_en_2+0 "t"
 105  0002              #line 105 "e:\demo_20211221\ht66f0185开发板资料\[2] source code\[test01] led_1\3key.c"
 105  0002  0F01        	mov a,1
 105  0003  0680     E  	andm a,ra
 105  0004  3404        	clr [4].0
 105  0005  0700     E  	mov a,ra
 105  0006  0584        	orm a,[4]
 106  0007              #line 106 "e:\demo_20211221\ht66f0185开发板资料\[2] source code\[test01] led_1\3key.c"
 106  0007  0F80        	mov a,128
 106  0008  0083        	mov [3],a
 107  0009              #line 107 "e:\demo_20211221\ht66f0185开发板资料\[2] source code\[test01] led_1\3key.c"
 107  0009  2800     R  	jmp _L23
 107  000A              _L24:
 109  000A              #line 109 "e:\demo_20211221\ht66f0185开发板资料\[2] source code\[test01] led_1\3key.c"
 109  000A  1F02        	clr [2]
 110  000B              #line 110 "e:\demo_20211221\ht66f0185开发板资料\[2] source code\[test01] led_1\3key.c"
 110  000B  1483        	inc [3]
 110  000C              _L23:
 107  000C              #line 107 "e:\demo_20211221\ht66f0185开发板资料\[2] source code\[test01] led_1\3key.c"
 107  000C  1083        	sz [3]
 107  000D  2800     R  	jmp _L24
 107  000E  0003        	ret
 107  000F              _clr_ram_en endp
 107  000F              #line 107 "e:\demo_20211221\ht66f0185开发板资料\[2] source code\[test01] led_1\3key.c"
 107  000F              #pragma debug scope 1 1
 107  000F              ___smod equ [11]
 107  000F              ___wdtc equ [26]
 107  000F              ___acerl equ [68]
 107  000F              ___tmpc equ [25]
 107  000F              ___cpc equ [63]
 107  000F              ___integ equ [13]
 107  000F              ___intc0 equ [14]
 107  000F              ___slcdc0 equ [74]
 107  000F              ___slcdc1 equ [75]
 107  000F              ___slcdc2 equ [76]
 107  000F              ___slcdc3 equ [77]
 107  000F              ___slcdc4 equ [78]
 107  000F              ___tm0c0 equ [47]
 107  000F              ___tm0c1 equ [48]
 107  000F              ___tm0al equ [51]
 107  000F              ___tm0ah equ [52]
 107  000F              ___mfi0 equ [17]
 107  000F              ___tbc equ [27]
 107  000F              ___intc1 equ [15]
 107  000F              public _Init_clock
 107  000F              #pragma debug scope 11 1
 115  000F              #line 115 "e:\demo_20211221\ht66f0185开发板资料\[2] source code\[test01] led_1\3key.c"
 115  0000              _Init_clock .section 'code'
 115  0000              _Init_clock proc
 116  0000              #line 116 "e:\demo_20211221\ht66f0185开发板资料\[2] source code\[test01] led_1\3key.c"
 116  0000  0F01        	mov a,1
 116  0001  008B        	mov [11],a
文件：3key.c       编译器版本 HGASM 0202 页次7

 116  0002              _L27:
 117  0002              #line 117 "e:\demo_20211221\ht66f0185开发板资料\[2] source code\[test01] led_1\3key.c"
 117  0002  390B        	snz [11].2
 117  0003  2800     R  	jmp _L27
 118  0004              #line 118 "e:\demo_20211221\ht66f0185开发板资料\[2] source code\[test01] led_1\3key.c"
 118  0004  0F57        	mov a,87
 118  0005  009A        	mov [26],a
 119  0006              #line 119 "e:\demo_20211221\ht66f0185开发板资料\[2] source code\[test01] led_1\3key.c"
 119  0006  1F44        	clr [68]
 120  0007              #line 120 "e:\demo_20211221\ht66f0185开发板资料\[2] source code\[test01] led_1\3key.c"
 120  0007  1F19        	clr [25]
 121  0008              #line 121 "e:\demo_20211221\ht66f0185开发板资料\[2] source code\[test01] led_1\3key.c"
 121  0008  0F08        	mov a,8
 121  0009  00BF        	mov [63],a
 122  000A              #line 122 "e:\demo_20211221\ht66f0185开发板资料\[2] source code\[test01] led_1\3key.c"
 122  000A  1F0D        	clr [13]
 123  000B              #line 123 "e:\demo_20211221\ht66f0185开发板资料\[2] source code\[test01] led_1\3key.c"
 123  000B  348E        	clr [14].1
 124  000C              #line 124 "e:\demo_20211221\ht66f0185开发板资料\[2] source code\[test01] led_1\3key.c"
 124  000C  340E        	clr [14].0
 127  000D              #line 127 "e:\demo_20211221\ht66f0185开发板资料\[2] source code\[test01] led_1\3key.c"
 127  000D  1F4A        	clr [74]
 128  000E              #line 128 "e:\demo_20211221\ht66f0185开发板资料\[2] source code\[test01] led_1\3key.c"
 128  000E  1F4B        	clr [75]
 129  000F              #line 129 "e:\demo_20211221\ht66f0185开发板资料\[2] source code\[test01] led_1\3key.c"
 129  000F  1F4C        	clr [76]
 130  0010              #line 130 "e:\demo_20211221\ht66f0185开发板资料\[2] source code\[test01] led_1\3key.c"
 130  0010  1F4D        	clr [77]
 131  0011              #line 131 "e:\demo_20211221\ht66f0185开发板资料\[2] source code\[test01] led_1\3key.c"
 131  0011  1F4E        	clr [78]
 133  0012              #line 133 "e:\demo_20211221\ht66f0185开发板资料\[2] source code\[test01] led_1\3key.c"
 133  0012  0F10        	mov a,16
 133  0013  00AF        	mov [47],a
 134  0014              #line 134 "e:\demo_20211221\ht66f0185开发板资料\[2] source code\[test01] led_1\3key.c"
 134  0014  0FC1        	mov a,193
 134  0015  00B0        	mov [48],a
 135  0016              #line 135 "e:\demo_20211221\ht66f0185开发板资料\[2] source code\[test01] led_1\3key.c"
 135  0016  0FF8        	mov a,248
 135  0017  00B3        	mov [51],a
 136  0018              #line 136 "e:\demo_20211221\ht66f0185开发板资料\[2] source code\[test01] led_1\3key.c"
 136  0018  0F05        	mov a,5
 136  0019  00B4        	mov [52],a
 137  001A              #line 137 "e:\demo_20211221\ht66f0185开发板资料\[2] source code\[test01] led_1\3key.c"
 137  001A  3691        	clr [17].5
 138  001B              #line 138 "e:\demo_20211221\ht66f0185开发板资料\[2] source code\[test01] led_1\3key.c"
 138  001B  31AF        	set [47].3
 139  001C              #line 139 "e:\demo_20211221\ht66f0185开发板资料\[2] source code\[test01] led_1\3key.c"
 139  001C  318E        	set [14].3
 140  001D              #line 140 "e:\demo_20211221\ht66f0185开发板资料\[2] source code\[test01] led_1\3key.c"
 140  001D  3091        	set [17].1
 142  001E              #line 142 "e:\demo_20211221\ht66f0185开发板资料\[2] source code\[test01] led_1\3key.c"
 142  001E  0F87        	mov a,135
 142  001F  009B        	mov [27],a
 143  0020              #line 143 "e:\demo_20211221\ht66f0185开发板资料\[2] source code\[test01] led_1\3key.c"
 143  0020  378F        	clr [15].7
 144  0021              #line 144 "e:\demo_20211221\ht66f0185开发板资料\[2] source code\[test01] led_1\3key.c"
 144  0021  318F        	set [15].3
 145  0022              #line 145 "e:\demo_20211221\ht66f0185开发板资料\[2] source code\[test01] led_1\3key.c"
 145  0022  300E        	set [14].0
 147  0023              #line 147 "e:\demo_20211221\ht66f0185开发板资料\[2] source code\[test01] led_1\3key.c"
文件：3key.c       编译器版本 HGASM 0202 页次8

 147  0023              ;# 147 "e:\demo_20211221\ht66f0185开发板资料\[2] source code\[test01] led_1\3key.c" 1
 147  0023  0001        	clr wdt
 148  0024              #line 148 "e:\demo_20211221\ht66f0185开发板资料\[2] source code\[test01] led_1\3key.c"
 148  0024  0F00        	mov a,0
 148  0025  2000     R  	call _clr_ram_en
 149  0026              #line 149 "e:\demo_20211221\ht66f0185开发板资料\[2] source code\[test01] led_1\3key.c"
 149  0026  0F01        	mov a,1
 149  0027  2000     R  	call _clr_ram_en
 149  0028  0003        	ret
 149  0029              _Init_clock endp
 149  0029              #line 149 "e:\demo_20211221\ht66f0185开发板资料\[2] source code\[test01] led_1\3key.c"
 149  0029              #pragma debug scope 1 1
 149  0029              public _isr_TBS0
 149  0029              #pragma debug scope 12 1
 155  0029              #line 155 "e:\demo_20211221\ht66f0185开发板资料\[2] source code\[test01] led_1\3key.c"
 155  0000              @isr_TBS0_code .section at 28 'code'
 155  0000  0080     E  	mov r1,a
 155  0001  070A        	mov a,status
 155  0002  0080     E  	mov r2,a
 155  0003  2800     R  	jmp _isr_TBS0
 155  0004              #pragma debug scope 1 1
 155  0004              @dummy28 endp
 155  0004              #pragma debug scope 13 1
 155  0000              _isr_TBS0 .section 'code'
 155  0000              _isr_TBS0 proc
 156  0000              #line 156 "e:\demo_20211221\ht66f0185开发板资料\[2] source code\[test01] led_1\3key.c"
 156  0000  378F        	clr [15].7
 156  0001  0700     E  	mov a,r2
 156  0002  008A        	mov status,a
 156  0003  0700     E  	mov a,r1
 156  0004  0004        	reti
 156  0005              _isr_TBS0 endp
 156  0005              
 156  0005              #line 156 "e:\demo_20211221\ht66f0185开发板资料\[2] source code\[test01] led_1\3key.c"
 156  0005              #pragma debug scope 1 1
 156  0005              public _isr_TM0
 156  0005              #pragma debug scope 14 1
 163  0005              #line 163 "e:\demo_20211221\ht66f0185开发板资料\[2] source code\[test01] led_1\3key.c"
 163  0000              @isr_TM0_code .section at 12 'code'
 163  0000  0080     E  	mov r1,a
 163  0001  070A        	mov a,status
 163  0002  0080     E  	mov r2,a
 163  0003  2800     R  	jmp _isr_TM0
 163  0004              #pragma debug scope 1 1
 163  0004              @dummy12 endp
 163  0004              #pragma debug scope 15 1
 163  0000              _isr_TM0 .section 'code'
 163  0000              _isr_TM0 proc
 164  0000              #line 164 "e:\demo_20211221\ht66f0185开发板资料\[2] source code\[test01] led_1\3key.c"
 164  0000  3691        	clr [17].5
 165  0001              #line 165 "e:\demo_20211221\ht66f0185开发板资料\[2] source code\[test01] led_1\3key.c"
 165  0001  300E        	set [14].0
 166  0002              #line 166 "e:\demo_20211221\ht66f0185开发板资料\[2] source code\[test01] led_1\3key.c"
 166  0002  1480     R  	inc _tms[0]
 166  0003  3D0A        	sz z
 166  0004  1480     R  	inc _tms[1]
 167  0005              #line 167 "e:\demo_20211221\ht66f0185开发板资料\[2] source code\[test01] led_1\3key.c"
 167  0005  0F73        	mov a,115
 167  0006  0200     R  	sub a,_tms[0]
 167  0007  0F14        	mov a,20
文件：3key.c       编译器版本 HGASM 0202 页次9

 167  0008  1200     R  	sbc a,_tms[1]
 167  0009  3C0A        	sz c
 167  000A  2800     R  	jmp _L29
 169  000B              #line 169 "e:\demo_20211221\ht66f0185开发板资料\[2] source code\[test01] led_1\3key.c"
 169  000B  1F00     R  	clr _tms[0]
 169  000C  1F00     R  	clr _tms[1]
 170  000D              #line 170 "e:\demo_20211221\ht66f0185开发板资料\[2] source code\[test01] led_1\3key.c"
 170  000D  1F00     E  	clr ra
 170  000E  38C1        	snz [65].1
 170  000F  3000     E  	set ra.1
 170  0010  34C1        	clr [65].1
 170  0011  0700     E  	mov a,ra
 170  0012  05C1        	orm a,[65]
 170  0013              _L29:
 170  0013  0700     E  	mov a,r2
 170  0014  008A        	mov status,a
 170  0015  0700     E  	mov a,r1
 170  0016  0004        	reti
 170  0017              _isr_TM0 endp
 170  0017              
 170  0017              #line 170 "e:\demo_20211221\ht66f0185开发板资料\[2] source code\[test01] led_1\3key.c"
 170  0017              #pragma debug scope 1 1
 170  0017              public _main
 170  0017              #pragma debug scope 16 1
 178  0017              #line 178 "e:\demo_20211221\ht66f0185开发板资料\[2] source code\[test01] led_1\3key.c"
 178  0017              IFDEF WITH_DEFAULT_STARTUP
 178  0017              extern _main_initial0:near
 178  0017              extern _main_startup:near
 178  0017              ENDIF
 178  0017              
 178  0017              ROMBANK 0 @start
 178  0000              @start .section com_l 'code'
 178  0000              _main_startup1:
 178  0000              @start .section com_e 'code'
 178  0000  2800     R  	jmp _main
 178  0001              
 178  0000              _main .section 'code'
 178  0000              _main proc
 179  0000              #line 179 "e:\demo_20211221\ht66f0185开发板资料\[2] source code\[test01] led_1\3key.c"
 179  0000              ;# 179 "e:\demo_20211221\ht66f0185开发板资料\[2] source code\[test01] led_1\3key.c" 1
 179  0000              	IF 100>263690
 179  0000              ;# 179 "e:\demo_20211221\ht66f0185开发板资料\[2] source code\[test01] led_1\3key.c" 1
 179  0000              	ERRMESSAGE 'the value 100of the argument exceeds the maxinum 263690'
 179  0000              	ENDIF
 179  0000              ;# 179 "e:\demo_20211221\ht66f0185开发板资料\[2] source code\[test01] led_1\3key.c" 1
 179  0000              	IF 100<0
 179  0000              ;# 179 "e:\demo_20211221\ht66f0185开发板资料\[2] source code\[test01] led_1\3key.c" 1
 179  0000              	ERRMESSAGE 'the value 100 of the argument exceeds the mininum 0'
 179  0000              	ENDIF
 179  0000              ;# 179 "e:\demo_20211221\ht66f0185开发板资料\[2] source code\[test01] led_1\3key.c" 1
 179  0000              	IF 100==0
 179  0000              ;# 179 "e:\demo_20211221\ht66f0185开发板资料\[2] source code\[test01] led_1\3key.c" 1
 179  0000              	JMP $
 179  0000              	ENDIF
 179  0000              ;# 179 "e:\demo_20211221\ht66f0185开发板资料\[2] source code\[test01] led_1\3key.c" 1
 179  0000              	IF 100==1
 179  0000              ;# 179 "e:\demo_20211221\ht66f0185开发板资料\[2] source code\[test01] led_1\3key.c" 1
 179  0000              	NOP
 179  0000              	ENDIF
 179  0000              ;# 179 "e:\demo_20211221\ht66f0185开发板资料\[2] source code\[test01] led_1\3key.c" 1
文件：3key.c       编译器版本 HGASM 0202 页次10

 179  0000              	IF 100==2
 179  0000              ;# 179 "e:\demo_20211221\ht66f0185开发板资料\[2] source code\[test01] led_1\3key.c" 1
 179  0000              	NOP
 179  0000              ;# 179 "e:\demo_20211221\ht66f0185开发板资料\[2] source code\[test01] led_1\3key.c" 1
 179  0000              	NOP
 179  0000              	ENDIF
 179  0000              ;# 179 "e:\demo_20211221\ht66f0185开发板资料\[2] source code\[test01] led_1\3key.c" 1
 179  0000              	IF 100==3
 179  0000              ;# 179 "e:\demo_20211221\ht66f0185开发板资料\[2] source code\[test01] led_1\3key.c" 1
 179  0000              	NOP
 179  0000              ;# 179 "e:\demo_20211221\ht66f0185开发板资料\[2] source code\[test01] led_1\3key.c" 1
 179  0000              	NOP
 179  0000              ;# 179 "e:\demo_20211221\ht66f0185开发板资料\[2] source code\[test01] led_1\3key.c" 1
 179  0000              	NOP
 179  0000              	ENDIF
 179  0000              ;# 179 "e:\demo_20211221\ht66f0185开发板资料\[2] source code\[test01] led_1\3key.c" 1
 179  0000              	IF (100<8) AND (100>3)
 179  0000              ;# 179 "e:\demo_20211221\ht66f0185开发板资料\[2] source code\[test01] led_1\3key.c" 1
 179  0000              	CALL __DELAY3 + 7 -100
 179  0000              	ENDIF
 179  0000              ;# 179 "e:\demo_20211221\ht66f0185开发板资料\[2] source code\[test01] led_1\3key.c" 1
 179  0000              	IF (100< 0404h) AND (100>7)
 179  0000              ;# 179 "e:\demo_20211221\ht66f0185开发板资料\[2] source code\[test01] led_1\3key.c" 1
 179  0000  0F18        	MOV A,100/4-1
 179  0001              ;# 179 "e:\demo_20211221\ht66f0185开发板资料\[2] source code\[test01] led_1\3key.c" 1
 179  0001  2000     E  	CALL __DELAYX3 + 3 -(100 MOD 4)
 179  0002              	ENDIF
 179  0002              ;# 179 "e:\demo_20211221\ht66f0185开发板资料\[2] source code\[test01] led_1\3key.c" 1
 179  0002              	IF (100< 0x40B) AND (100> 0403h)
 179  0002              ;# 179 "e:\demo_20211221\ht66f0185开发板资料\[2] source code\[test01] led_1\3key.c" 1
 179  0002              	MOV A,0 
 179  0002              ;# 179 "e:\demo_20211221\ht66f0185开发板资料\[2] source code\[test01] led_1\3key.c" 1
 179  0002              	CALL __DELAYX6 + 0x40a -100
 179  0002              	ENDIF
 179  0002              ;# 179 "e:\demo_20211221\ht66f0185开发板资料\[2] source code\[test01] led_1\3key.c" 1
 179  0002              	IF (100 >= 0x40b) AND ((((100-9)%0402h)/4+1)>256)
 179  0002              ;# 179 "e:\demo_20211221\ht66f0185开发板资料\[2] source code\[test01] led_1\3key.c" 1
 179  0002              	MOV A,(100-9)/0402h
 179  0002              ;# 179 "e:\demo_20211221\ht66f0185开发板资料\[2] source code\[test01] led_1\3key.c" 1
 179  0002              	MOV _builtin_holtek_delay_2,A
 179  0002              ;# 179 "e:\demo_20211221\ht66f0185开发板资料\[2] source code\[test01] led_1\3key.c" 1
 179  0002              	MOV A,0
 179  0002              ;# 179 "e:\demo_20211221\ht66f0185开发板资料\[2] source code\[test01] led_1\3key.c" 1
 179  0002              	CALL __DELAYY5 +5- (((100-9)%0402h)%6)
 179  0002              	ENDIF
 179  0002              ;# 179 "e:\demo_20211221\ht66f0185开发板资料\[2] source code\[test01] led_1\3key.c" 1
 179  0002              	IF (100 >= 0x40b) AND ((((100-9)%0402h)/4+1)<=256)
 179  0002              ;# 179 "e:\demo_20211221\ht66f0185开发板资料\[2] source code\[test01] led_1\3key.c" 1
 179  0002              	MOV A,(100-9)/0402h
 179  0002              ;# 179 "e:\demo_20211221\ht66f0185开发板资料\[2] source code\[test01] led_1\3key.c" 1
 179  0002              	MOV _builtin_holtek_delay_2,A
 179  0002              ;# 179 "e:\demo_20211221\ht66f0185开发板资料\[2] source code\[test01] led_1\3key.c" 1
 179  0002              	MOV A,((100-9)%0402h)/4+1
 179  0002              ;# 179 "e:\demo_20211221\ht66f0185开发板资料\[2] source code\[test01] led_1\3key.c" 1
 179  0002              	CALL __DELAYY3 +3-(((100-9)%0402h)%4)
 179  0002              	ENDIF
 180  0002              #line 180 "e:\demo_20211221\ht66f0185开发板资料\[2] source code\[test01] led_1\3key.c"
 180  0002  2000     R  	call _Init_clock
 182  0003              #line 182 "e:\demo_20211221\ht66f0185开发板资料\[2] source code\[test01] led_1\3key.c"
 182  0003  1F00     R  	clr _GPIOA_INIT_2[2]
文件：3key.c       编译器版本 HGASM 0202 页次11

 182  0004  1F00     R  	clr _GPIOA_INIT_2[1]
 182  0005  1F00     R  	clr _GPIOA_INIT_2[0]
 182  0006  0FFF        	mov a,255
 182  0007  2000     R  	call _GPIOA_INIT
 183  0008              #line 183 "e:\demo_20211221\ht66f0185开发板资料\[2] source code\[test01] led_1\3key.c"
 183  0008  1F00     R  	clr _GPIOB_INIT_2[1]
 183  0009  1F00     R  	clr _GPIOB_INIT_2[0]
 183  000A  0FFF        	mov a,255
 183  000B  2000     R  	call _GPIOB_INIT
 184  000C              #line 184 "e:\demo_20211221\ht66f0185开发板资料\[2] source code\[test01] led_1\3key.c"
 184  000C  0F01        	mov a,1
 184  000D  0080     R  	mov _GPIOC_INIT_2[1],a
 184  000E  1F00     R  	clr _GPIOC_INIT_2[0]
 184  000F  0FFF        	mov a,255
 184  0010  2000     R  	call _GPIOC_INIT
 185  0011              #line 185 "e:\demo_20211221\ht66f0185开发板资料\[2] source code\[test01] led_1\3key.c"
 185  0011  0F01        	mov a,1
 185  0012  0080     R  	mov _GPIOD_INIT_2[1],a
 185  0013  1F00     R  	clr _GPIOD_INIT_2[0]
 185  0014  0FFF        	mov a,255
 185  0015  2000     R  	call _GPIOD_INIT
 187  0016              #line 187 "e:\demo_20211221\ht66f0185开发板资料\[2] source code\[test01] led_1\3key.c"
 187  0016  0F01        	mov a,1
 187  0017  0080     R  	mov _GPIOB_INIT_2[1],a
 187  0018  1F00     R  	clr _GPIOB_INIT_2[0]
 187  0019  0F48        	mov a,72
 187  001A  2000     R  	call _GPIOB_INIT
 188  001B              #line 188 "e:\demo_20211221\ht66f0185开发板资料\[2] source code\[test01] led_1\3key.c"
 188  001B  0F01        	mov a,1
 188  001C  0080     R  	mov _GPIOA_INIT_2[2],a
 188  001D  1F00     R  	clr _GPIOA_INIT_2[1]
 188  001E  1F00     R  	clr _GPIOA_INIT_2[0]
 188  001F  0F02        	mov a,2
 188  0020  2000     R  	call _GPIOA_INIT
 188  0021              _L32:
 193  0021              #line 193 "e:\demo_20211221\ht66f0185开发板资料\[2] source code\[test01] led_1\3key.c"
 193  0021              ;# 193 "e:\demo_20211221\ht66f0185开发板资料\[2] source code\[test01] led_1\3key.c" 1
 193  0021  0001        	clr wdt
 193  0022  2800     R  	jmp _L32
 193  0023  2800     R  	jmp $
 193  0024              _main endp
 193  0024              
 193  0024              @dummy endp
 193  0024              
 193  0024              #line 193 "e:\demo_20211221\ht66f0185开发板资料\[2] source code\[test01] led_1\3key.c"
 193  0024              #pragma debug scope 1 1

 136  0024              #line 136 "e:\demo_20211221\ht66f0185开发板资料\[2] source code\[test01] led_1\init.h"
 136  0024              public _bBbSound
 136  0000              @HCCINIT0 .section 'data'
 136  0000              _bBbSound	db 0
 136  0001              #pragma debug variable 7 1 _bBbSound "bBbSound"
 136  0001              
 136  0000              @HCCINIT .section 'data'
 134  0000              #line 134 "e:\demo_20211221\ht66f0185开发板资料\[2] source code\[test01] led_1\init.h"
 134  0000              public _bbCnt
 134  0001              @HCCINIT0 .section 'data'
 134  0001              _bbCnt	db 0
 134  0002              #pragma debug variable 8 1 _bbCnt "bbCnt"
 134  0002              
文件：init.h       编译器版本 HGASM 0202 页次12

 134  0000              @HCCINIT .section 'data'
 133  0000              #line 133 "e:\demo_20211221\ht66f0185开发板资料\[2] source code\[test01] led_1\init.h"
 133  0000              public _bbTime
 133  0002              @HCCINIT0 .section 'data'
 133  0002  0002[       _bbTime	db 2 dup(0)
            00
            ]
 133  0004              #pragma debug variable 12 1 _bbTime "bbTime"
 133  0004              
 133  0000              @HCCINIT .section 'data'
 132  0000              #line 132 "e:\demo_20211221\ht66f0185开发板资料\[2] source code\[test01] led_1\init.h"
 132  0000              public _bbRam
 132  0004              @HCCINIT0 .section 'data'
 132  0004              _bbRam	db 0
 132  0005              #pragma debug variable 8 1 _bbRam "bbRam"
 132  0005              
 132  0000              @HCCINIT .section 'data'
 128  0000              #line 128 "e:\demo_20211221\ht66f0185开发板资料\[2] source code\[test01] led_1\init.h"
 128  0000              public _value
 128  0005              @HCCINIT0 .section 'data'
 128  0005              _value	db 0
 128  0006              #pragma debug variable 7 1 _value "value"
 128  0006              
 128  0000              @HCCINIT .section 'data'
 127  0000              #line 127 "e:\demo_20211221\ht66f0185开发板资料\[2] source code\[test01] led_1\init.h"
 127  0000              public _keystep
 127  0006              @HCCINIT0 .section 'data'
 127  0006              _keystep	db 0
 127  0007              #pragma debug variable 8 1 _keystep "keystep"
 127  0007              
 127  0000              @HCCINIT .section 'data'
 126  0000              #line 126 "e:\demo_20211221\ht66f0185开发板资料\[2] source code\[test01] led_1\init.h"
 126  0000              public _step3
 126  0007              @HCCINIT0 .section 'data'
 126  0007              _step3	db 0
 126  0008              #pragma debug variable 8 1 _step3 "step3"
 126  0008              
 126  0000              @HCCINIT .section 'data'
 125  0000              #line 125 "e:\demo_20211221\ht66f0185开发板资料\[2] source code\[test01] led_1\init.h"
 125  0000              public _step2
 125  0008              @HCCINIT0 .section 'data'
 125  0008              _step2	db 0
 125  0009              #pragma debug variable 8 1 _step2 "step2"
 125  0009              
 125  0000              @HCCINIT .section 'data'
 124  0000              #line 124 "e:\demo_20211221\ht66f0185开发板资料\[2] source code\[test01] led_1\init.h"
 124  0000              public _step1
 124  0009              @HCCINIT0 .section 'data'
 124  0009              _step1	db 0
 124  000A              #pragma debug variable 8 1 _step1 "step1"
 124  000A              
 124  0000              @HCCINIT .section 'data'
 123  0000              #line 123 "e:\demo_20211221\ht66f0185开发板资料\[2] source code\[test01] led_1\init.h"
 123  0000              public _step
 123  000A              @HCCINIT0 .section 'data'
 123  000A              _step	db 0
 123  000B              #pragma debug variable 8 1 _step "step"
 123  000B              
 123  0000              @HCCINIT .section 'data'
 122  0000              #line 122 "e:\demo_20211221\ht66f0185开发板资料\[2] source code\[test01] led_1\init.h"
文件：init.h       编译器版本 HGASM 0202 页次13

 122  0000              public _data
 122  000B              @HCCINIT0 .section 'data'
 122  000B              _data	db 0
 122  000C              #pragma debug variable 8 1 _data "data"
 122  000C              
 122  0000              @HCCINIT .section 'data'
 120  0000              #line 120 "e:\demo_20211221\ht66f0185开发板资料\[2] source code\[test01] led_1\init.h"
 120  0000              public _t2s
 120  000C              @HCCINIT0 .section 'data'
 120  000C              _t2s	db 0
 120  000D              #pragma debug variable 8 1 _t2s "t2s"
 120  000D              
 120  0000              @HCCINIT .section 'data'
 119  0000              #line 119 "e:\demo_20211221\ht66f0185开发板资料\[2] source code\[test01] led_1\init.h"
 119  0000              public _t10s
 119  000D              @HCCINIT0 .section 'data'
 119  000D              _t10s	db 0
 119  000E              #pragma debug variable 8 1 _t10s "t10s"
 119  000E              
 119  0000              @HCCINIT .section 'data'
 118  0000              #line 118 "e:\demo_20211221\ht66f0185开发板资料\[2] source code\[test01] led_1\init.h"
 118  0000              public _tms4
 118  000E              @HCCINIT0 .section 'data'
 118  000E              _tms4	db 0
 118  000F              #pragma debug variable 8 1 _tms4 "tms4"
 118  000F              
 118  0000              @HCCINIT .section 'data'
 117  0000              #line 117 "e:\demo_20211221\ht66f0185开发板资料\[2] source code\[test01] led_1\init.h"
 117  0000              public _tms3
 117  000F              @HCCINIT0 .section 'data'
 117  000F              _tms3	db 0
 117  0010              #pragma debug variable 8 1 _tms3 "tms3"
 117  0010              
 117  0000              @HCCINIT .section 'data'
 116  0000              #line 116 "e:\demo_20211221\ht66f0185开发板资料\[2] source code\[test01] led_1\init.h"
 116  0000              public _tms2
 116  0010              @HCCINIT0 .section 'data'
 116  0010              _tms2	db 0
 116  0011              #pragma debug variable 8 1 _tms2 "tms2"
 116  0011              
 116  0000              @HCCINIT .section 'data'
 115  0000              #line 115 "e:\demo_20211221\ht66f0185开发板资料\[2] source code\[test01] led_1\init.h"
 115  0000              public _tms1
 115  0011              @HCCINIT0 .section 'data'
 115  0011              _tms1	db 0
 115  0012              #pragma debug variable 8 1 _tms1 "tms1"
 115  0012              
 115  0000              @HCCINIT .section 'data'
 114  0000              #line 114 "e:\demo_20211221\ht66f0185开发板资料\[2] source code\[test01] led_1\init.h"
 114  0000              public _tms
 114  0012              @HCCINIT0 .section 'data'
 114  0012  0002[       _tms	db 2 dup(0)
            00
            ]
 114  0014              #pragma debug variable 12 1 _tms "tms"
 114  0014              
 114  0000              @HCCINIT .section 'data'
  74  0000              #line 74 "e:\demo_20211221\ht66f0185开发板资料\[2] source code\[test01] led_1\init.h"
  74  0000              public _uF3
  74  0014              @HCCINIT0 .section 'data'
文件：init.h       编译器版本 HGASM 0202 页次14

  74  0014              _uF3	db 0
  74  0015              #pragma debug struct_end
  74  0015              #pragma debug struct_end
  74  0015              #pragma debug union_end
  74  0015              #pragma debug union_end
  74  0015              #pragma debug variable 43 1 _uF3 "uF3"
  74  0015              
  74  0000              @HCCINIT .section 'data'
  74  0000              #line 74 "e:\demo_20211221\ht66f0185开发板资料\[2] source code\[test01] led_1\init.h"
  74  0000              public _uF2
  74  0015              @HCCINIT0 .section 'data'
  74  0015              _uF2	db 0
  74  0016              #pragma debug variable 43 1 _uF2 "uF2"
  74  0016              
  74  0000              @HCCINIT .section 'data'
  74  0000              #line 74 "e:\demo_20211221\ht66f0185开发板资料\[2] source code\[test01] led_1\init.h"
  74  0000              public _uF1
  74  0016              @HCCINIT0 .section 'data'
  74  0016              _uF1	db 0
  74  0017              #pragma debug variable 43 1 _uF1 "uF1"
  74  0017              
  74  0000              @HCCINIT .section 'data'
  74  0000              #pragma debug variable 8 1 ___mp1 "__mp1" 1
  74  0000              #pragma debug struct_end
  74  0000              #pragma debug struct_end
  74  0000              #pragma debug union_end
  74  0000              #pragma debug union_end
  74  0000              #pragma debug variable 45 1 ___bp "__bp" 1
  74  0000              #pragma debug struct_end
  74  0000              #pragma debug struct_end
  74  0000              #pragma debug union_end
  74  0000              #pragma debug union_end
  74  0000              #pragma debug variable 47 1 ___smod "__smod" 1
  74  0000              #pragma debug struct_end
  74  0000              #pragma debug struct_end
  74  0000              #pragma debug union_end
  74  0000              #pragma debug union_end
  74  0000              #pragma debug variable 49 1 ___integ "__integ" 1
  74  0000              #pragma debug struct_end
  74  0000              #pragma debug struct_end
  74  0000              #pragma debug union_end
  74  0000              #pragma debug union_end
  74  0000              #pragma debug variable 51 1 ___intc0 "__intc0" 1
  74  0000              #pragma debug struct_end
  74  0000              #pragma debug struct_end
  74  0000              #pragma debug union_end
  74  0000              #pragma debug union_end
  74  0000              #pragma debug variable 53 1 ___intc1 "__intc1" 1
  74  0000              #pragma debug struct_end
  74  0000              #pragma debug struct_end
  74  0000              #pragma debug union_end
  74  0000              #pragma debug union_end
  74  0000              #pragma debug variable 55 1 ___mfi0 "__mfi0" 1
  74  0000              #pragma debug struct_end
  74  0000              #pragma debug struct_end
  74  0000              #pragma debug union_end
  74  0000              #pragma debug union_end
  74  0000              #pragma debug variable 57 1 ___pa "__pa" 1
  74  0000              #pragma debug struct_end
  74  0000              #pragma debug struct_end
文件：init.h       编译器版本 HGASM 0202 页次15

  74  0000              #pragma debug union_end
  74  0000              #pragma debug union_end
  74  0000              #pragma debug variable 59 1 ___pac "__pac" 1
  74  0000              #pragma debug struct_end
  74  0000              #pragma debug struct_end
  74  0000              #pragma debug union_end
  74  0000              #pragma debug union_end
  74  0000              #pragma debug variable 61 1 ___papu "__papu" 1
  74  0000              #pragma debug struct_end
  74  0000              #pragma debug struct_end
  74  0000              #pragma debug union_end
  74  0000              #pragma debug union_end
  74  0000              #pragma debug variable 63 1 ___tmpc "__tmpc" 1
  74  0000              #pragma debug struct_end
  74  0000              #pragma debug struct_end
  74  0000              #pragma debug union_end
  74  0000              #pragma debug union_end
  74  0000              #pragma debug variable 65 1 ___wdtc "__wdtc" 1
  74  0000              #pragma debug struct_end
  74  0000              #pragma debug struct_end
  74  0000              #pragma debug union_end
  74  0000              #pragma debug union_end
  74  0000              #pragma debug variable 67 1 ___tbc "__tbc" 1
  74  0000              #pragma debug struct_end
  74  0000              #pragma debug struct_end
  74  0000              #pragma debug union_end
  74  0000              #pragma debug union_end
  74  0000              #pragma debug variable 69 1 ___pb "__pb" 1
  74  0000              #pragma debug struct_end
  74  0000              #pragma debug struct_end
  74  0000              #pragma debug union_end
  74  0000              #pragma debug union_end
  74  0000              #pragma debug variable 71 1 ___pbc "__pbc" 1
  74  0000              #pragma debug struct_end
  74  0000              #pragma debug struct_end
  74  0000              #pragma debug union_end
  74  0000              #pragma debug union_end
  74  0000              #pragma debug variable 73 1 ___pbpu "__pbpu" 1
  74  0000              #pragma debug struct_end
  74  0000              #pragma debug struct_end
  74  0000              #pragma debug union_end
  74  0000              #pragma debug union_end
  74  0000              #pragma debug variable 75 1 ___tm0c0 "__tm0c0" 1
  74  0000              #pragma debug struct_end
  74  0000              #pragma debug struct_end
  74  0000              #pragma debug union_end
  74  0000              #pragma debug union_end
  74  0000              #pragma debug variable 77 1 ___tm0c1 "__tm0c1" 1
  74  0000              #pragma debug variable 8 1 ___tm0al "__tm0al" 1
  74  0000              #pragma debug variable 8 1 ___tm0ah "__tm0ah" 1
  74  0000              #pragma debug struct_end
  74  0000              #pragma debug struct_end
  74  0000              #pragma debug union_end
  74  0000              #pragma debug union_end
  74  0000              #pragma debug variable 79 1 ___cpc "__cpc" 1
  74  0000              #pragma debug struct_end
  74  0000              #pragma debug struct_end
  74  0000              #pragma debug union_end
  74  0000              #pragma debug union_end
  74  0000              #pragma debug variable 81 1 ___pc "__pc" 1
文件：init.h       编译器版本 HGASM 0202 页次16

  74  0000              #pragma debug struct_end
  74  0000              #pragma debug struct_end
  74  0000              #pragma debug union_end
  74  0000              #pragma debug union_end
  74  0000              #pragma debug variable 83 1 ___pcc "__pcc" 1
  74  0000              #pragma debug struct_end
  74  0000              #pragma debug struct_end
  74  0000              #pragma debug union_end
  74  0000              #pragma debug union_end
  74  0000              #pragma debug variable 85 1 ___pcpu "__pcpu" 1
  74  0000              #pragma debug struct_end
  74  0000              #pragma debug struct_end
  74  0000              #pragma debug union_end
  74  0000              #pragma debug union_end
  74  0000              #pragma debug variable 87 1 ___acerl "__acerl" 1
  74  0000              #pragma debug struct_end
  74  0000              #pragma debug struct_end
  74  0000              #pragma debug union_end
  74  0000              #pragma debug union_end
  74  0000              #pragma debug variable 89 1 ___slcdc0 "__slcdc0" 1
  74  0000              #pragma debug struct_end
  74  0000              #pragma debug struct_end
  74  0000              #pragma debug union_end
  74  0000              #pragma debug union_end
  74  0000              #pragma debug variable 91 1 ___slcdc1 "__slcdc1" 1
  74  0000              #pragma debug struct_end
  74  0000              #pragma debug struct_end
  74  0000              #pragma debug union_end
  74  0000              #pragma debug union_end
  74  0000              #pragma debug variable 93 1 ___slcdc2 "__slcdc2" 1
  74  0000              #pragma debug struct_end
  74  0000              #pragma debug struct_end
  74  0000              #pragma debug union_end
  74  0000              #pragma debug union_end
  74  0000              #pragma debug variable 95 1 ___slcdc3 "__slcdc3" 1
  74  0000              #pragma debug struct_end
  74  0000              #pragma debug struct_end
  74  0000              #pragma debug union_end
  74  0000              #pragma debug union_end
  74  0000              #pragma debug variable 97 1 ___slcdc4 "__slcdc4" 1
  74  0000              #pragma debug struct_end
  74  0000              #pragma debug struct_end
  74  0000              #pragma debug union_end
  74  0000              #pragma debug union_end
  74  0000              #pragma debug variable 99 1 ___pd "__pd" 1
  74  0000              #pragma debug struct_end
  74  0000              #pragma debug struct_end
  74  0000              #pragma debug union_end
  74  0000              #pragma debug union_end
  74  0000              #pragma debug variable 101 1 ___pdc "__pdc" 1
  74  0000              #pragma debug struct_end
  74  0000              #pragma debug struct_end
  74  0000              #pragma debug union_end
  74  0000              #pragma debug union_end
  74  0000              #pragma debug variable 103 1 ___pdpu "__pdpu" 1
  74  0000              #pragma debug variable 8 1 ___iar1 "__iar1" 1
  74  0000              extern r1:byte
  74  0000              extern r2:byte

 178  0000              #line 178 "e:\demo_20211221\ht66f0185开发板资料\[2] source code\[test01] led_1\3key.c"
文件：3key.c       编译器版本 HGASM 0202 页次17

 178  0000              @code .section at 0 'code'
 178  0000  2800     R  	jmp _main_startup1
 178  0001              
 178  0001              
 178  0001              ; 
 178  0001              ; Generated by holtek-gcc v3.19, Fri Dec 31 18:25:51 2021
 178  0001              ; Rebuild 718
 178  0001              ; end of file


        0 Errors, 0